; ModuleID = '4bpjdg3tq3cdsoeo'
source_filename = "4bpjdg3tq3cdsoeo"
target datalayout = "e-m:e-p270:32:32-p271:32:32-p272:64:64-i64:64-f80:128-n8:16:32:64-S128"
target triple = "x86_64-unknown-linux-gnu"

%"core::fmt::Formatter" = type { { i64, i64 }, { i64, i64 }, { {}*, [3 x i64]* }, i32, i32, i8, [7 x i8] }
%"core::fmt::builders::DebugList" = type { %"core::fmt::builders::DebugInner" }
%"core::fmt::builders::DebugInner" = type { %"core::fmt::Formatter"*, i8, i8, [6 x i8] }
%"core::fmt::Opaque" = type {}
%"core::fmt::Arguments" = type { { [0 x { [0 x i8]*, i64 }]*, i64 }, { i64*, i64 }, { [0 x { i8*, i64* }]*, i64 } }
%"core::panic::location::Location" = type { { [0 x i8]*, i64 }, i32, i32 }
%"[closure@src/test_arrays.rs:45:1: 63:2]" = type {}
%"[closure@src/test_arrays.rs:31:1: 35:2]" = type {}
%"[closure@src/test_arrays.rs:66:1: 78:2]" = type {}
%"[closure@src/test_arrays.rs:38:1: 42:2]" = type {}
%"[closure@src/test_arrays.rs:81:1: 99:2]" = type {}
%"[closure@src/test_arrays.rs:102:1: 120:2]" = type {}
%"alloc::vec::Vec<i32>" = type { { i32*, i64 }, i64 }
%"core::ptr::metadata::PtrComponents<u8>" = type { {}*, {} }
%"core::ptr::metadata::PtrRepr<u8>" = type { [1 x i64] }
%"core::alloc::layout::LayoutError" = type {}
%"core::result::Result<core::convert::Infallible, core::alloc::layout::LayoutError>::Err" = type { %"core::alloc::layout::LayoutError" }
%"core::ops::range::RangeFull" = type {}
%"[closure@alloc::raw_vec::handle_reserve::{closure#0}]" = type {}
%"core::result::Result<(), alloc::collections::TryReserveErrorKind>::Ok" = type { {} }
%"core::result::Result<core::alloc::layout::Layout, alloc::collections::TryReserveErrorKind>" = type { i64, [2 x i64] }
%"[closure@alloc::raw_vec::finish_grow<alloc::alloc::Global>::{closure#0}]" = type {}
%"core::result::Result<core::alloc::layout::Layout, alloc::collections::TryReserveErrorKind>::Ok" = type { [1 x i64], { i64, i64 } }
%"core::result::Result<core::alloc::layout::Layout, alloc::collections::TryReserveErrorKind>::Err" = type { [1 x i64], { i64, i64 } }
%"core::result::Result<core::ptr::non_null::NonNull<[u8]>, alloc::collections::TryReserveError>" = type { i64, [2 x i64] }
%"core::alloc::AllocError" = type {}
%"core::result::Result<core::ptr::non_null::NonNull<[u8]>, alloc::collections::TryReserveError>::Ok" = type { [1 x i64], { i8*, i64 } }
%"core::result::Result<core::ptr::non_null::NonNull<[u8]>, alloc::collections::TryReserveError>::Err" = type { [1 x i64], { i64, i64 } }
%"core::option::Option<core::fmt::Arguments>" = type { {}*, [5 x i64] }
%"core::option::Option<core::fmt::Arguments>::Some" = type { %"core::fmt::Arguments" }
%"[closure@<i32 as alloc::vec::is_zero::IsZero>::is_zero::{closure#0}]" = type {}
%"alloc::alloc::Global" = type {}
%"core::result::Result<core::convert::Infallible, core::alloc::AllocError>::Err" = type { %"core::alloc::AllocError" }
%"core::ptr::metadata::PtrRepr<[u8]>" = type { [2 x i64] }
%"[closure@core::intrinsics::copy_nonoverlapping<u8>::{closure#0}]" = type { i8**, i8**, i64* }
%"core::option::Option<(core::ptr::non_null::NonNull<u8>, core::alloc::layout::Layout)>" = type { [2 x i64], i64 }
%"core::ops::control_flow::ControlFlow<core::result::Result<core::convert::Infallible, alloc::collections::TryReserveErrorKind>, core::alloc::layout::Layout>" = type { i64, [2 x i64] }
%"core::ops::control_flow::ControlFlow<core::result::Result<core::convert::Infallible, alloc::collections::TryReserveErrorKind>, core::alloc::layout::Layout>::Continue" = type { [1 x i64], { i64, i64 } }
%"core::ops::control_flow::ControlFlow<core::result::Result<core::convert::Infallible, alloc::collections::TryReserveErrorKind>, core::alloc::layout::Layout>::Break" = type { [1 x i64], { i64, i64 } }
%"core::option::Option<(core::ptr::non_null::NonNull<u8>, core::alloc::layout::Layout)>::Some" = type { { i8*, { i64, i64 } } }
%"core::ops::control_flow::ControlFlow<core::result::Result<core::convert::Infallible, alloc::collections::TryReserveError>, core::ptr::non_null::NonNull<[u8]>>" = type { i64, [2 x i64] }
%"core::result::Result<usize, alloc::collections::TryReserveErrorKind>" = type { i64, [2 x i64] }
%"core::ops::control_flow::ControlFlow<core::result::Result<core::convert::Infallible, alloc::collections::TryReserveErrorKind>, usize>" = type { i64, [2 x i64] }
%"core::result::Result<usize, alloc::collections::TryReserveErrorKind>::Err" = type { [1 x i64], { i64, i64 } }
%"core::result::Result<usize, alloc::collections::TryReserveErrorKind>::Ok" = type { [1 x i64], i64 }
%"core::ops::control_flow::ControlFlow<core::result::Result<core::convert::Infallible, alloc::collections::TryReserveErrorKind>, usize>::Continue" = type { [1 x i64], i64 }
%"core::ops::control_flow::ControlFlow<core::result::Result<core::convert::Infallible, alloc::collections::TryReserveErrorKind>, usize>::Break" = type { [1 x i64], { i64, i64 } }
%"core::ops::control_flow::ControlFlow<core::result::Result<core::convert::Infallible, alloc::collections::TryReserveError>, core::ptr::non_null::NonNull<[u8]>>::Continue" = type { [1 x i64], { i8*, i64 } }
%"core::ops::control_flow::ControlFlow<core::result::Result<core::convert::Infallible, alloc::collections::TryReserveError>, core::ptr::non_null::NonNull<[u8]>>::Break" = type { [1 x i64], { i64, i64 } }
%"core::ptr::metadata::PtrRepr<[i32]>" = type { [2 x i64] }
%"packed_arrays::event_queue_t" = type { %"packed_arrays::event_queue_t_Inner" }
%"packed_arrays::event_queue_t_Inner" = type { i32 }
%"incomplete_arrays::sized_array" = type { i64, [0 x i32] }
%"test::types::TestDescAndFn" = type { %"test::types::TestDesc", %"test::types::TestFn" }
%"test::types::TestDesc" = type { %"test::types::TestName", { i8*, i64 }, %"test::options::ShouldPanic", i8, i8, i8, i8, [4 x i8] }
%"test::types::TestName" = type { i8, [39 x i8] }
%"test::options::ShouldPanic" = type { i64, [2 x i64] }
%"test::types::TestFn" = type { i64, [2 x i64] }
%"unwind::libunwind::_Unwind_Exception" = type { i64, void (i32, %"unwind::libunwind::_Unwind_Exception"*)*, [6 x i64] }
%"unwind::libunwind::_Unwind_Context" = type { [0 x i8] }

@vtable.0 = private unnamed_addr constant <{ i8*, [16 x i8], i8*, i8*, i8* }> <{ i8* bitcast (void (i64**)* @"_ZN4core3ptr85drop_in_place$LT$std..rt..lang_start$LT$$LP$$RP$$GT$..$u7b$$u7b$closure$u7d$$u7d$$GT$17h3168fd86cd542110E" to i8*), [16 x i8] c"\08\00\00\00\00\00\00\00\08\00\00\00\00\00\00\00", i8* bitcast (i32 (i64**)* @"_ZN4core3ops8function6FnOnce40call_once$u7b$$u7b$vtable.shim$u7d$$u7d$17h9b0e5466779f4103E" to i8*), i8* bitcast (i32 (i64**)* @"_ZN3std2rt10lang_start28_$u7b$$u7b$closure$u7d$$u7d$17h1dbdd53c3505487dE" to i8*), i8* bitcast (i32 (i64**)* @"_ZN3std2rt10lang_start28_$u7b$$u7b$closure$u7d$$u7d$17h1dbdd53c3505487dE" to i8*) }>, align 8, !dbg !0
@vtable.1 = private unnamed_addr constant <{ i8*, [16 x i8], i8* }> <{ i8* bitcast (void (i32**)* @"_ZN4core3ptr28drop_in_place$LT$$RF$i32$GT$17h2e40cf13126c2945E" to i8*), [16 x i8] c"\08\00\00\00\00\00\00\00\08\00\00\00\00\00\00\00", i8* bitcast (i1 (i32**, %"core::fmt::Formatter"*)* @"_ZN42_$LT$$RF$T$u20$as$u20$core..fmt..Debug$GT$3fmt17h9fdbb99fdc519e06E" to i8*) }>, align 8, !dbg !24
@alloc126 = private unnamed_addr constant <{ [12 x i8] }> <{ [12 x i8] c"invalid args" }>, align 1
@alloc127 = private unnamed_addr constant <{ i8*, [8 x i8] }> <{ i8* getelementptr inbounds (<{ [12 x i8] }>, <{ [12 x i8] }>* @alloc126, i32 0, i32 0, i32 0), [8 x i8] c"\0C\00\00\00\00\00\00\00" }>, align 8
@alloc284 = private unnamed_addr constant <{}> zeroinitializer, align 8
@alloc431 = private unnamed_addr constant <{ [75 x i8] }> <{ [75 x i8] c"/rustc/d394408fb38c4de61f765a3ed5189d2731a1da91/library/core/src/fmt/mod.rs" }>, align 1
@alloc432 = private unnamed_addr constant <{ i8*, [16 x i8] }> <{ i8* getelementptr inbounds (<{ [75 x i8] }>, <{ [75 x i8] }>* @alloc431, i32 0, i32 0, i32 0), [16 x i8] c"K\00\00\00\00\00\00\00\88\01\00\00\0D\00\00\00" }>, align 8
@vtable.2 = private unnamed_addr constant <{ i8*, [16 x i8], i8* }> <{ i8* bitcast (void (i8**)* @"_ZN4core3ptr29drop_in_place$LT$$RF$bool$GT$17h049972998a46580cE" to i8*), [16 x i8] c"\08\00\00\00\00\00\00\00\08\00\00\00\00\00\00\00", i8* bitcast (i1 (i8**, %"core::fmt::Formatter"*)* @"_ZN42_$LT$$RF$T$u20$as$u20$core..fmt..Debug$GT$3fmt17hce03d97be8db13b2E" to i8*) }>, align 8, !dbg !34
@vtable.3 = private unnamed_addr constant <{ i8*, [16 x i8], i8* }> <{ i8* bitcast (void (i32**)* @"_ZN4core3ptr28drop_in_place$LT$$RF$u32$GT$17h6bea87460d2c111dE" to i8*), [16 x i8] c"\08\00\00\00\00\00\00\00\08\00\00\00\00\00\00\00", i8* bitcast (i1 (i32**, %"core::fmt::Formatter"*)* @"_ZN42_$LT$$RF$T$u20$as$u20$core..fmt..Debug$GT$3fmt17h67c8af7d0ce2e79aE" to i8*) }>, align 8, !dbg !44
@vtable.4 = private unnamed_addr constant <{ i8*, [16 x i8], i8* }> <{ i8* bitcast (void ([2 x i32]**)* @"_ZN4core3ptr49drop_in_place$LT$$RF$$u5b$i32$u3b$$u20$2$u5d$$GT$17hdf2d5ba04d5e48c9E" to i8*), [16 x i8] c"\08\00\00\00\00\00\00\00\08\00\00\00\00\00\00\00", i8* bitcast (i1 ([2 x i32]**, %"core::fmt::Formatter"*)* @"_ZN42_$LT$$RF$T$u20$as$u20$core..fmt..Debug$GT$3fmt17h8162c2433ccb8bc2E" to i8*) }>, align 8, !dbg !54
@alloc115 = private unnamed_addr constant <{ [4 x i8] }> zeroinitializer, align 4
@alloc117 = private unnamed_addr constant <{ [67 x i8] }> <{ [67 x i8] c"the test returned a termination value with a non-zero status code (" }>, align 1
@alloc119 = private unnamed_addr constant <{ [27 x i8] }> <{ [27 x i8] c") which indicates a failure" }>, align 1
@alloc118 = private unnamed_addr constant <{ i8*, [8 x i8], i8*, [8 x i8] }> <{ i8* getelementptr inbounds (<{ [67 x i8] }>, <{ [67 x i8] }>* @alloc117, i32 0, i32 0, i32 0), [8 x i8] c"C\00\00\00\00\00\00\00", i8* getelementptr inbounds (<{ [27 x i8] }>, <{ [27 x i8] }>* @alloc119, i32 0, i32 0, i32 0), [8 x i8] c"\1B\00\00\00\00\00\00\00" }>, align 8
@alloc442 = private unnamed_addr constant <{ [71 x i8] }> <{ [71 x i8] c"/rustc/d394408fb38c4de61f765a3ed5189d2731a1da91/library/test/src/lib.rs" }>, align 1
@alloc443 = private unnamed_addr constant <{ i8*, [16 x i8] }> <{ i8* getelementptr inbounds (<{ [71 x i8] }>, <{ [71 x i8] }>* @alloc442, i32 0, i32 0, i32 0), [16 x i8] c"G\00\00\00\00\00\00\00\B8\00\00\00\05\00\00\00" }>, align 8
@SOME_INTS = constant <{ [16 x i8] }> <{ [16 x i8] c"\02\00\00\00\00\00\00\00\01\00\00\00\08\00\00\00" }>, align 4, !dbg !66
@rust_SOME_INTS = constant <{ [16 x i8] }> <{ [16 x i8] c"\02\00\00\00\00\00\00\00\01\00\00\00\08\00\00\00" }>, align 4, !dbg !74
@_ZN11array_tests6arrays11rust_simple17hdaa33264b2630333E = internal global <{ [9 x i8] }> <{ [9 x i8] c"mystring\00" }>, align 1, !dbg !76
@alloc13 = private unnamed_addr constant <{ [9 x i8] }> <{ [9 x i8] c"mystring\00" }>, align 1
@_ZN11array_tests6arrays8rust_foo17h5210be68efd147e1E = internal global <{ i8* }> <{ i8* getelementptr inbounds (<{ [9 x i8] }>, <{ [9 x i8] }>* @alloc13, i32 0, i32 0, i32 0) }>, align 8, !dbg !84
@alloc546 = private unnamed_addr constant <{ [13 x i8] }> <{ [13 x i8] c"src/arrays.rs" }>, align 1
@alloc445 = private unnamed_addr constant <{ i8*, [16 x i8] }> <{ i8* getelementptr inbounds (<{ [13 x i8] }>, <{ [13 x i8] }>* @alloc546, i32 0, i32 0, i32 0), [16 x i8] c"\0D\00\00\00\00\00\00\00\1C\00\00\00\05\00\00\00" }>, align 8
@str.5 = internal constant [28 x i8] c"attempt to add with overflow"
@alloc447 = private unnamed_addr constant <{ i8*, [16 x i8] }> <{ i8* getelementptr inbounds (<{ [13 x i8] }>, <{ [13 x i8] }>* @alloc546, i32 0, i32 0, i32 0), [16 x i8] c"\0D\00\00\00\00\00\00\00\1F\00\00\00\05\00\00\00" }>, align 8
@alloc449 = private unnamed_addr constant <{ i8*, [16 x i8] }> <{ i8* getelementptr inbounds (<{ [13 x i8] }>, <{ [13 x i8] }>* @alloc546, i32 0, i32 0, i32 0), [16 x i8] c"\0D\00\00\00\00\00\00\00$\00\00\00\05\00\00\00" }>, align 8
@alloc17 = private unnamed_addr constant <{ [4 x i8] }> <{ [4 x i8] c"abc\00" }>, align 1
@alloc451 = private unnamed_addr constant <{ i8*, [16 x i8] }> <{ i8* getelementptr inbounds (<{ [13 x i8] }>, <{ [13 x i8] }>* @alloc546, i32 0, i32 0, i32 0), [16 x i8] c"\0D\00\00\00\00\00\00\00+\00\00\00\09\00\00\00" }>, align 8
@alloc453 = private unnamed_addr constant <{ i8*, [16 x i8] }> <{ i8* getelementptr inbounds (<{ [13 x i8] }>, <{ [13 x i8] }>* @alloc546, i32 0, i32 0, i32 0), [16 x i8] c"\0D\00\00\00\00\00\00\00/\00\00\00\09\00\00\00" }>, align 8
@alloc455 = private unnamed_addr constant <{ i8*, [16 x i8] }> <{ i8* getelementptr inbounds (<{ [13 x i8] }>, <{ [13 x i8] }>* @alloc546, i32 0, i32 0, i32 0), [16 x i8] c"\0D\00\00\00\00\00\00\003\00\00\00\09\00\00\00" }>, align 8
@alloc457 = private unnamed_addr constant <{ i8*, [16 x i8] }> <{ i8* getelementptr inbounds (<{ [13 x i8] }>, <{ [13 x i8] }>* @alloc546, i32 0, i32 0, i32 0), [16 x i8] c"\0D\00\00\00\00\00\00\007\00\00\00\09\00\00\00" }>, align 8
@alloc459 = private unnamed_addr constant <{ i8*, [16 x i8] }> <{ i8* getelementptr inbounds (<{ [13 x i8] }>, <{ [13 x i8] }>* @alloc546, i32 0, i32 0, i32 0), [16 x i8] c"\0D\00\00\00\00\00\00\00@\00\00\00\09\00\00\00" }>, align 8
@alloc461 = private unnamed_addr constant <{ i8*, [16 x i8] }> <{ i8* getelementptr inbounds (<{ [13 x i8] }>, <{ [13 x i8] }>* @alloc546, i32 0, i32 0, i32 0), [16 x i8] c"\0D\00\00\00\00\00\00\00D\00\00\00\09\00\00\00" }>, align 8
@alloc463 = private unnamed_addr constant <{ i8*, [16 x i8] }> <{ i8* getelementptr inbounds (<{ [13 x i8] }>, <{ [13 x i8] }>* @alloc546, i32 0, i32 0, i32 0), [16 x i8] c"\0D\00\00\00\00\00\00\00H\00\00\00\09\00\00\00" }>, align 8
@alloc465 = private unnamed_addr constant <{ i8*, [16 x i8] }> <{ i8* getelementptr inbounds (<{ [13 x i8] }>, <{ [13 x i8] }>* @alloc546, i32 0, i32 0, i32 0), [16 x i8] c"\0D\00\00\00\00\00\00\00M\00\00\00\09\00\00\00" }>, align 8
@alloc467 = private unnamed_addr constant <{ i8*, [16 x i8] }> <{ i8* getelementptr inbounds (<{ [13 x i8] }>, <{ [13 x i8] }>* @alloc546, i32 0, i32 0, i32 0), [16 x i8] c"\0D\00\00\00\00\00\00\00Q\00\00\00\09\00\00\00" }>, align 8
@alloc469 = private unnamed_addr constant <{ i8*, [16 x i8] }> <{ i8* getelementptr inbounds (<{ [13 x i8] }>, <{ [13 x i8] }>* @alloc546, i32 0, i32 0, i32 0), [16 x i8] c"\0D\00\00\00\00\00\00\00W\00\00\00\09\00\00\00" }>, align 8
@alloc471 = private unnamed_addr constant <{ i8*, [16 x i8] }> <{ i8* getelementptr inbounds (<{ [13 x i8] }>, <{ [13 x i8] }>* @alloc546, i32 0, i32 0, i32 0), [16 x i8] c"\0D\00\00\00\00\00\00\00[\00\00\00\09\00\00\00" }>, align 8
@alloc473 = private unnamed_addr constant <{ i8*, [16 x i8] }> <{ i8* getelementptr inbounds (<{ [13 x i8] }>, <{ [13 x i8] }>* @alloc546, i32 0, i32 0, i32 0), [16 x i8] c"\0D\00\00\00\00\00\00\00_\00\00\00\09\00\00\00" }>, align 8
@alloc475 = private unnamed_addr constant <{ i8*, [16 x i8] }> <{ i8* getelementptr inbounds (<{ [13 x i8] }>, <{ [13 x i8] }>* @alloc546, i32 0, i32 0, i32 0), [16 x i8] c"\0D\00\00\00\00\00\00\00c\00\00\00\09\00\00\00" }>, align 8
@alloc18 = private unnamed_addr constant <{ [5 x i8] }> <{ [5 x i8] c"abcd\00" }>, align 1
@alloc477 = private unnamed_addr constant <{ i8*, [16 x i8] }> <{ i8* getelementptr inbounds (<{ [13 x i8] }>, <{ [13 x i8] }>* @alloc546, i32 0, i32 0, i32 0), [16 x i8] c"\0D\00\00\00\00\00\00\00k\00\00\00\09\00\00\00" }>, align 8
@alloc479 = private unnamed_addr constant <{ i8*, [16 x i8] }> <{ i8* getelementptr inbounds (<{ [13 x i8] }>, <{ [13 x i8] }>* @alloc546, i32 0, i32 0, i32 0), [16 x i8] c"\0D\00\00\00\00\00\00\00o\00\00\00\09\00\00\00" }>, align 8
@alloc481 = private unnamed_addr constant <{ i8*, [16 x i8] }> <{ i8* getelementptr inbounds (<{ [13 x i8] }>, <{ [13 x i8] }>* @alloc546, i32 0, i32 0, i32 0), [16 x i8] c"\0D\00\00\00\00\00\00\00s\00\00\00\09\00\00\00" }>, align 8
@alloc483 = private unnamed_addr constant <{ i8*, [16 x i8] }> <{ i8* getelementptr inbounds (<{ [13 x i8] }>, <{ [13 x i8] }>* @alloc546, i32 0, i32 0, i32 0), [16 x i8] c"\0D\00\00\00\00\00\00\00w\00\00\00\09\00\00\00" }>, align 8
@alloc19 = private unnamed_addr constant <{ [3 x i8] }> <{ [3 x i8] c"abc" }>, align 1
@alloc485 = private unnamed_addr constant <{ i8*, [16 x i8] }> <{ i8* getelementptr inbounds (<{ [13 x i8] }>, <{ [13 x i8] }>* @alloc546, i32 0, i32 0, i32 0), [16 x i8] c"\0D\00\00\00\00\00\00\00\7F\00\00\00\09\00\00\00" }>, align 8
@alloc487 = private unnamed_addr constant <{ i8*, [16 x i8] }> <{ i8* getelementptr inbounds (<{ [13 x i8] }>, <{ [13 x i8] }>* @alloc546, i32 0, i32 0, i32 0), [16 x i8] c"\0D\00\00\00\00\00\00\00\83\00\00\00\09\00\00\00" }>, align 8
@alloc489 = private unnamed_addr constant <{ i8*, [16 x i8] }> <{ i8* getelementptr inbounds (<{ [13 x i8] }>, <{ [13 x i8] }>* @alloc546, i32 0, i32 0, i32 0), [16 x i8] c"\0D\00\00\00\00\00\00\00\87\00\00\00\09\00\00\00" }>, align 8
@alloc20 = private unnamed_addr constant <{ [20 x i8] }> <{ [20 x i8] c"abc\00\00\00\00\00\00\00\00\00\00\00\00\00\00\00\00\00" }>, align 1
@alloc491 = private unnamed_addr constant <{ i8*, [16 x i8] }> <{ i8* getelementptr inbounds (<{ [13 x i8] }>, <{ [13 x i8] }>* @alloc546, i32 0, i32 0, i32 0), [16 x i8] c"\0D\00\00\00\00\00\00\00\8F\00\00\00\09\00\00\00" }>, align 8
@alloc493 = private unnamed_addr constant <{ i8*, [16 x i8] }> <{ i8* getelementptr inbounds (<{ [13 x i8] }>, <{ [13 x i8] }>* @alloc546, i32 0, i32 0, i32 0), [16 x i8] c"\0D\00\00\00\00\00\00\00\93\00\00\00\09\00\00\00" }>, align 8
@alloc495 = private unnamed_addr constant <{ i8*, [16 x i8] }> <{ i8* getelementptr inbounds (<{ [13 x i8] }>, <{ [13 x i8] }>* @alloc546, i32 0, i32 0, i32 0), [16 x i8] c"\0D\00\00\00\00\00\00\00\97\00\00\00\09\00\00\00" }>, align 8
@alloc497 = private unnamed_addr constant <{ i8*, [16 x i8] }> <{ i8* getelementptr inbounds (<{ [13 x i8] }>, <{ [13 x i8] }>* @alloc546, i32 0, i32 0, i32 0), [16 x i8] c"\0D\00\00\00\00\00\00\00\9B\00\00\00\09\00\00\00" }>, align 8
@alloc499 = private unnamed_addr constant <{ i8*, [16 x i8] }> <{ i8* getelementptr inbounds (<{ [13 x i8] }>, <{ [13 x i8] }>* @alloc546, i32 0, i32 0, i32 0), [16 x i8] c"\0D\00\00\00\00\00\00\00\9F\00\00\00\09\00\00\00" }>, align 8
@alloc501 = private unnamed_addr constant <{ i8*, [16 x i8] }> <{ i8* getelementptr inbounds (<{ [13 x i8] }>, <{ [13 x i8] }>* @alloc546, i32 0, i32 0, i32 0), [16 x i8] c"\0D\00\00\00\00\00\00\00\A3\00\00\00\09\00\00\00" }>, align 8
@alloc503 = private unnamed_addr constant <{ i8*, [16 x i8] }> <{ i8* getelementptr inbounds (<{ [13 x i8] }>, <{ [13 x i8] }>* @alloc546, i32 0, i32 0, i32 0), [16 x i8] c"\0D\00\00\00\00\00\00\00\A7\00\00\00\09\00\00\00" }>, align 8
@alloc21 = private unnamed_addr constant <{ [8 x i8] }> <{ [8 x i8] c"x\00\00\00\00\00\00\00" }>, align 1
@alloc505 = private unnamed_addr constant <{ i8*, [16 x i8] }> <{ i8* getelementptr inbounds (<{ [13 x i8] }>, <{ [13 x i8] }>* @alloc546, i32 0, i32 0, i32 0), [16 x i8] c"\0D\00\00\00\00\00\00\00\AF\00\00\00\09\00\00\00" }>, align 8
@alloc507 = private unnamed_addr constant <{ i8*, [16 x i8] }> <{ i8* getelementptr inbounds (<{ [13 x i8] }>, <{ [13 x i8] }>* @alloc546, i32 0, i32 0, i32 0), [16 x i8] c"\0D\00\00\00\00\00\00\00\B2\00\00\00\09\00\00\00" }>, align 8
@alloc22 = private unnamed_addr constant <{ [12 x i8] }> <{ [12 x i8] c"x\00\00\00\00\00\00\00\00\00\00\00" }>, align 1
@alloc509 = private unnamed_addr constant <{ i8*, [16 x i8] }> <{ i8* getelementptr inbounds (<{ [13 x i8] }>, <{ [13 x i8] }>* @alloc546, i32 0, i32 0, i32 0), [16 x i8] c"\0D\00\00\00\00\00\00\00\B9\00\00\00\09\00\00\00" }>, align 8
@alloc511 = private unnamed_addr constant <{ i8*, [16 x i8] }> <{ i8* getelementptr inbounds (<{ [13 x i8] }>, <{ [13 x i8] }>* @alloc546, i32 0, i32 0, i32 0), [16 x i8] c"\0D\00\00\00\00\00\00\00\BC\00\00\00\09\00\00\00" }>, align 8
@alloc513 = private unnamed_addr constant <{ i8*, [16 x i8] }> <{ i8* getelementptr inbounds (<{ [13 x i8] }>, <{ [13 x i8] }>* @alloc546, i32 0, i32 0, i32 0), [16 x i8] c"\0D\00\00\00\00\00\00\00\BF\00\00\00\09\00\00\00" }>, align 8
@alloc23 = private unnamed_addr constant <{ [4 x i8] }> <{ [4 x i8] c"x\00\00\00" }>, align 1
@alloc515 = private unnamed_addr constant <{ i8*, [16 x i8] }> <{ i8* getelementptr inbounds (<{ [13 x i8] }>, <{ [13 x i8] }>* @alloc546, i32 0, i32 0, i32 0), [16 x i8] c"\0D\00\00\00\00\00\00\00\C6\00\00\00\09\00\00\00" }>, align 8
@alloc517 = private unnamed_addr constant <{ i8*, [16 x i8] }> <{ i8* getelementptr inbounds (<{ [13 x i8] }>, <{ [13 x i8] }>* @alloc546, i32 0, i32 0, i32 0), [16 x i8] c"\0D\00\00\00\00\00\00\00\C9\00\00\00\09\00\00\00" }>, align 8
@alloc519 = private unnamed_addr constant <{ i8*, [16 x i8] }> <{ i8* getelementptr inbounds (<{ [13 x i8] }>, <{ [13 x i8] }>* @alloc546, i32 0, i32 0, i32 0), [16 x i8] c"\0D\00\00\00\00\00\00\00\CD\00\00\00\09\00\00\00" }>, align 8
@alloc521 = private unnamed_addr constant <{ i8*, [16 x i8] }> <{ i8* getelementptr inbounds (<{ [13 x i8] }>, <{ [13 x i8] }>* @alloc546, i32 0, i32 0, i32 0), [16 x i8] c"\0D\00\00\00\00\00\00\00\D1\00\00\00\09\00\00\00" }>, align 8
@alloc523 = private unnamed_addr constant <{ i8*, [16 x i8] }> <{ i8* getelementptr inbounds (<{ [13 x i8] }>, <{ [13 x i8] }>* @alloc546, i32 0, i32 0, i32 0), [16 x i8] c"\0D\00\00\00\00\00\00\00\D5\00\00\00\09\00\00\00" }>, align 8
@alloc525 = private unnamed_addr constant <{ i8*, [16 x i8] }> <{ i8* getelementptr inbounds (<{ [13 x i8] }>, <{ [13 x i8] }>* @alloc546, i32 0, i32 0, i32 0), [16 x i8] c"\0D\00\00\00\00\00\00\00\D9\00\00\00\09\00\00\00" }>, align 8
@alloc527 = private unnamed_addr constant <{ i8*, [16 x i8] }> <{ i8* getelementptr inbounds (<{ [13 x i8] }>, <{ [13 x i8] }>* @alloc546, i32 0, i32 0, i32 0), [16 x i8] c"\0D\00\00\00\00\00\00\00\DD\00\00\00\09\00\00\00" }>, align 8
@alloc529 = private unnamed_addr constant <{ i8*, [16 x i8] }> <{ i8* getelementptr inbounds (<{ [13 x i8] }>, <{ [13 x i8] }>* @alloc546, i32 0, i32 0, i32 0), [16 x i8] c"\0D\00\00\00\00\00\00\00\E1\00\00\00\09\00\00\00" }>, align 8
@alloc531 = private unnamed_addr constant <{ i8*, [16 x i8] }> <{ i8* getelementptr inbounds (<{ [13 x i8] }>, <{ [13 x i8] }>* @alloc546, i32 0, i32 0, i32 0), [16 x i8] c"\0D\00\00\00\00\00\00\00\E5\00\00\00\09\00\00\00" }>, align 8
@alloc533 = private unnamed_addr constant <{ i8*, [16 x i8] }> <{ i8* getelementptr inbounds (<{ [13 x i8] }>, <{ [13 x i8] }>* @alloc546, i32 0, i32 0, i32 0), [16 x i8] c"\0D\00\00\00\00\00\00\00\E9\00\00\00\09\00\00\00" }>, align 8
@alloc535 = private unnamed_addr constant <{ i8*, [16 x i8] }> <{ i8* getelementptr inbounds (<{ [13 x i8] }>, <{ [13 x i8] }>* @alloc546, i32 0, i32 0, i32 0), [16 x i8] c"\0D\00\00\00\00\00\00\00\ED\00\00\00\09\00\00\00" }>, align 8
@alloc537 = private unnamed_addr constant <{ i8*, [16 x i8] }> <{ i8* getelementptr inbounds (<{ [13 x i8] }>, <{ [13 x i8] }>* @alloc546, i32 0, i32 0, i32 0), [16 x i8] c"\0D\00\00\00\00\00\00\00\F1\00\00\00\09\00\00\00" }>, align 8
@alloc539 = private unnamed_addr constant <{ i8*, [16 x i8] }> <{ i8* getelementptr inbounds (<{ [13 x i8] }>, <{ [13 x i8] }>* @alloc546, i32 0, i32 0, i32 0), [16 x i8] c"\0D\00\00\00\00\00\00\00\F5\00\00\00\09\00\00\00" }>, align 8
@alloc541 = private unnamed_addr constant <{ i8*, [16 x i8] }> <{ i8* getelementptr inbounds (<{ [13 x i8] }>, <{ [13 x i8] }>* @alloc546, i32 0, i32 0, i32 0), [16 x i8] c"\0D\00\00\00\00\00\00\00\F9\00\00\00\09\00\00\00" }>, align 8
@alloc543 = private unnamed_addr constant <{ i8*, [16 x i8] }> <{ i8* getelementptr inbounds (<{ [13 x i8] }>, <{ [13 x i8] }>* @alloc546, i32 0, i32 0, i32 0), [16 x i8] c"\0D\00\00\00\00\00\00\00\FD\00\00\00\09\00\00\00" }>, align 8
@alloc545 = private unnamed_addr constant <{ i8*, [16 x i8] }> <{ i8* getelementptr inbounds (<{ [13 x i8] }>, <{ [13 x i8] }>* @alloc546, i32 0, i32 0, i32 0), [16 x i8] c"\0D\00\00\00\00\00\00\00\01\01\00\00\09\00\00\00" }>, align 8
@alloc547 = private unnamed_addr constant <{ i8*, [16 x i8] }> <{ i8* getelementptr inbounds (<{ [13 x i8] }>, <{ [13 x i8] }>* @alloc546, i32 0, i32 0, i32 0), [16 x i8] c"\0D\00\00\00\00\00\00\00\05\01\00\00\09\00\00\00" }>, align 8
@alloc620 = private unnamed_addr constant <{ [22 x i8] }> <{ [22 x i8] c"src/variable_arrays.rs" }>, align 1
@alloc549 = private unnamed_addr constant <{ i8*, [16 x i8] }> <{ i8* getelementptr inbounds (<{ [22 x i8] }>, <{ [22 x i8] }>* @alloc620, i32 0, i32 0, i32 0), [16 x i8] c"\16\00\00\00\00\00\00\00\10\00\00\00\0F\00\00\00" }>, align 8
@str.6 = internal constant [33 x i8] c"attempt to multiply with overflow"
@alloc551 = private unnamed_addr constant <{ i8*, [16 x i8] }> <{ i8* getelementptr inbounds (<{ [22 x i8] }>, <{ [22 x i8] }>* @alloc620, i32 0, i32 0, i32 0), [16 x i8] c"\16\00\00\00\00\00\00\00\16\00\00\00\13\00\00\00" }>, align 8
@alloc553 = private unnamed_addr constant <{ i8*, [16 x i8] }> <{ i8* getelementptr inbounds (<{ [22 x i8] }>, <{ [22 x i8] }>* @alloc620, i32 0, i32 0, i32 0), [16 x i8] c"\16\00\00\00\00\00\00\00\1A\00\00\00\1B\00\00\00" }>, align 8
@alloc555 = private unnamed_addr constant <{ i8*, [16 x i8] }> <{ i8* getelementptr inbounds (<{ [22 x i8] }>, <{ [22 x i8] }>* @alloc620, i32 0, i32 0, i32 0), [16 x i8] c"\16\00\00\00\00\00\00\00\1C\00\00\00*\00\00\00" }>, align 8
@alloc557 = private unnamed_addr constant <{ i8*, [16 x i8] }> <{ i8* getelementptr inbounds (<{ [22 x i8] }>, <{ [22 x i8] }>* @alloc620, i32 0, i32 0, i32 0), [16 x i8] c"\16\00\00\00\00\00\00\00\1C\00\00\00\1D\00\00\00" }>, align 8
@alloc559 = private unnamed_addr constant <{ i8*, [16 x i8] }> <{ i8* getelementptr inbounds (<{ [22 x i8] }>, <{ [22 x i8] }>* @alloc620, i32 0, i32 0, i32 0), [16 x i8] c"\16\00\00\00\00\00\00\00\1D\00\00\00\1D\00\00\00" }>, align 8
@alloc561 = private unnamed_addr constant <{ i8*, [16 x i8] }> <{ i8* getelementptr inbounds (<{ [22 x i8] }>, <{ [22 x i8] }>* @alloc620, i32 0, i32 0, i32 0), [16 x i8] c"\16\00\00\00\00\00\00\00\1F\00\00\00\11\00\00\00" }>, align 8
@alloc563 = private unnamed_addr constant <{ i8*, [16 x i8] }> <{ i8* getelementptr inbounds (<{ [22 x i8] }>, <{ [22 x i8] }>* @alloc620, i32 0, i32 0, i32 0), [16 x i8] c"\16\00\00\00\00\00\00\00\22\00\00\00\0D\00\00\00" }>, align 8
@alloc565 = private unnamed_addr constant <{ i8*, [16 x i8] }> <{ i8* getelementptr inbounds (<{ [22 x i8] }>, <{ [22 x i8] }>* @alloc620, i32 0, i32 0, i32 0), [16 x i8] c"\16\00\00\00\00\00\00\00%\00\00\00\09\00\00\00" }>, align 8
@alloc567 = private unnamed_addr constant <{ i8*, [16 x i8] }> <{ i8* getelementptr inbounds (<{ [22 x i8] }>, <{ [22 x i8] }>* @alloc620, i32 0, i32 0, i32 0), [16 x i8] c"\16\00\00\00\00\00\00\00)\00\00\001\00\00\00" }>, align 8
@alloc569 = private unnamed_addr constant <{ i8*, [16 x i8] }> <{ i8* getelementptr inbounds (<{ [22 x i8] }>, <{ [22 x i8] }>* @alloc620, i32 0, i32 0, i32 0), [16 x i8] c"\16\00\00\00\00\00\00\00)\00\00\00\11\00\00\00" }>, align 8
@alloc571 = private unnamed_addr constant <{ i8*, [16 x i8] }> <{ i8* getelementptr inbounds (<{ [22 x i8] }>, <{ [22 x i8] }>* @alloc620, i32 0, i32 0, i32 0), [16 x i8] c"\16\00\00\00\00\00\00\00*\00\00\00\11\00\00\00" }>, align 8
@alloc573 = private unnamed_addr constant <{ i8*, [16 x i8] }> <{ i8* getelementptr inbounds (<{ [22 x i8] }>, <{ [22 x i8] }>* @alloc620, i32 0, i32 0, i32 0), [16 x i8] c"\16\00\00\00\00\00\00\003\00\00\00\0F\00\00\00" }>, align 8
@alloc575 = private unnamed_addr constant <{ i8*, [16 x i8] }> <{ i8* getelementptr inbounds (<{ [22 x i8] }>, <{ [22 x i8] }>* @alloc620, i32 0, i32 0, i32 0), [16 x i8] c"\16\00\00\00\00\00\00\009\00\00\00\13\00\00\00" }>, align 8
@alloc577 = private unnamed_addr constant <{ i8*, [16 x i8] }> <{ i8* getelementptr inbounds (<{ [22 x i8] }>, <{ [22 x i8] }>* @alloc620, i32 0, i32 0, i32 0), [16 x i8] c"\16\00\00\00\00\00\00\00=\00\00\00\1B\00\00\00" }>, align 8
@alloc579 = private unnamed_addr constant <{ i8*, [16 x i8] }> <{ i8* getelementptr inbounds (<{ [22 x i8] }>, <{ [22 x i8] }>* @alloc620, i32 0, i32 0, i32 0), [16 x i8] c"\16\00\00\00\00\00\00\00?\00\00\00*\00\00\00" }>, align 8
@alloc581 = private unnamed_addr constant <{ i8*, [16 x i8] }> <{ i8* getelementptr inbounds (<{ [22 x i8] }>, <{ [22 x i8] }>* @alloc620, i32 0, i32 0, i32 0), [16 x i8] c"\16\00\00\00\00\00\00\00?\00\00\00\1D\00\00\00" }>, align 8
@alloc583 = private unnamed_addr constant <{ i8*, [16 x i8] }> <{ i8* getelementptr inbounds (<{ [22 x i8] }>, <{ [22 x i8] }>* @alloc620, i32 0, i32 0, i32 0), [16 x i8] c"\16\00\00\00\00\00\00\00@\00\00\00\1D\00\00\00" }>, align 8
@alloc585 = private unnamed_addr constant <{ i8*, [16 x i8] }> <{ i8* getelementptr inbounds (<{ [22 x i8] }>, <{ [22 x i8] }>* @alloc620, i32 0, i32 0, i32 0), [16 x i8] c"\16\00\00\00\00\00\00\00B\00\00\00\11\00\00\00" }>, align 8
@alloc587 = private unnamed_addr constant <{ i8*, [16 x i8] }> <{ i8* getelementptr inbounds (<{ [22 x i8] }>, <{ [22 x i8] }>* @alloc620, i32 0, i32 0, i32 0), [16 x i8] c"\16\00\00\00\00\00\00\00E\00\00\00\0D\00\00\00" }>, align 8
@alloc589 = private unnamed_addr constant <{ i8*, [16 x i8] }> <{ i8* getelementptr inbounds (<{ [22 x i8] }>, <{ [22 x i8] }>* @alloc620, i32 0, i32 0, i32 0), [16 x i8] c"\16\00\00\00\00\00\00\00H\00\00\00\09\00\00\00" }>, align 8
@alloc591 = private unnamed_addr constant <{ i8*, [16 x i8] }> <{ i8* getelementptr inbounds (<{ [22 x i8] }>, <{ [22 x i8] }>* @alloc620, i32 0, i32 0, i32 0), [16 x i8] c"\16\00\00\00\00\00\00\00a\00\00\00\1B\00\00\00" }>, align 8
@alloc593 = private unnamed_addr constant <{ i8*, [16 x i8] }> <{ i8* getelementptr inbounds (<{ [22 x i8] }>, <{ [22 x i8] }>* @alloc620, i32 0, i32 0, i32 0), [16 x i8] c"\16\00\00\00\00\00\00\00b\00\00\000\00\00\00" }>, align 8
@alloc595 = private unnamed_addr constant <{ i8*, [16 x i8] }> <{ i8* getelementptr inbounds (<{ [22 x i8] }>, <{ [22 x i8] }>* @alloc620, i32 0, i32 0, i32 0), [16 x i8] c"\16\00\00\00\00\00\00\00c\00\00\00\11\00\00\00" }>, align 8
@alloc597 = private unnamed_addr constant <{ i8*, [16 x i8] }> <{ i8* getelementptr inbounds (<{ [22 x i8] }>, <{ [22 x i8] }>* @alloc620, i32 0, i32 0, i32 0), [16 x i8] c"\16\00\00\00\00\00\00\00f\00\00\00\0D\00\00\00" }>, align 8
@alloc599 = private unnamed_addr constant <{ i8*, [16 x i8] }> <{ i8* getelementptr inbounds (<{ [22 x i8] }>, <{ [22 x i8] }>* @alloc620, i32 0, i32 0, i32 0), [16 x i8] c"\16\00\00\00\00\00\00\00i\00\00\00\09\00\00\00" }>, align 8
@alloc601 = private unnamed_addr constant <{ i8*, [16 x i8] }> <{ i8* getelementptr inbounds (<{ [22 x i8] }>, <{ [22 x i8] }>* @alloc620, i32 0, i32 0, i32 0), [16 x i8] c"\16\00\00\00\00\00\00\00q\00\00\003\00\00\00" }>, align 8
@alloc603 = private unnamed_addr constant <{ i8*, [16 x i8] }> <{ i8* getelementptr inbounds (<{ [22 x i8] }>, <{ [22 x i8] }>* @alloc620, i32 0, i32 0, i32 0), [16 x i8] c"\16\00\00\00\00\00\00\00s\00\00\00\13\00\00\00" }>, align 8
@alloc605 = private unnamed_addr constant <{ i8*, [16 x i8] }> <{ i8* getelementptr inbounds (<{ [22 x i8] }>, <{ [22 x i8] }>* @alloc620, i32 0, i32 0, i32 0), [16 x i8] c"\16\00\00\00\00\00\00\00u\00\00\00\09\00\00\00" }>, align 8
@alloc607 = private unnamed_addr constant <{ i8*, [16 x i8] }> <{ i8* getelementptr inbounds (<{ [22 x i8] }>, <{ [22 x i8] }>* @alloc620, i32 0, i32 0, i32 0), [16 x i8] c"\16\00\00\00\00\00\00\00\96\00\00\00\1B\00\00\00" }>, align 8
@alloc609 = private unnamed_addr constant <{ i8*, [16 x i8] }> <{ i8* getelementptr inbounds (<{ [22 x i8] }>, <{ [22 x i8] }>* @alloc620, i32 0, i32 0, i32 0), [16 x i8] c"\16\00\00\00\00\00\00\00\97\00\00\000\00\00\00" }>, align 8
@alloc611 = private unnamed_addr constant <{ i8*, [16 x i8] }> <{ i8* getelementptr inbounds (<{ [22 x i8] }>, <{ [22 x i8] }>* @alloc620, i32 0, i32 0, i32 0), [16 x i8] c"\16\00\00\00\00\00\00\00\98\00\00\00\11\00\00\00" }>, align 8
@alloc613 = private unnamed_addr constant <{ i8*, [16 x i8] }> <{ i8* getelementptr inbounds (<{ [22 x i8] }>, <{ [22 x i8] }>* @alloc620, i32 0, i32 0, i32 0), [16 x i8] c"\16\00\00\00\00\00\00\00\9B\00\00\00\0D\00\00\00" }>, align 8
@alloc615 = private unnamed_addr constant <{ i8*, [16 x i8] }> <{ i8* getelementptr inbounds (<{ [22 x i8] }>, <{ [22 x i8] }>* @alloc620, i32 0, i32 0, i32 0), [16 x i8] c"\16\00\00\00\00\00\00\00\9E\00\00\00\09\00\00\00" }>, align 8
@alloc617 = private unnamed_addr constant <{ i8*, [16 x i8] }> <{ i8* getelementptr inbounds (<{ [22 x i8] }>, <{ [22 x i8] }>* @alloc620, i32 0, i32 0, i32 0), [16 x i8] c"\16\00\00\00\00\00\00\00\AA\00\00\00&\00\00\00" }>, align 8
@alloc619 = private unnamed_addr constant <{ i8*, [16 x i8] }> <{ i8* getelementptr inbounds (<{ [22 x i8] }>, <{ [22 x i8] }>* @alloc620, i32 0, i32 0, i32 0), [16 x i8] c"\16\00\00\00\00\00\00\00\AC\00\00\00\13\00\00\00" }>, align 8
@alloc621 = private unnamed_addr constant <{ i8*, [16 x i8] }> <{ i8* getelementptr inbounds (<{ [22 x i8] }>, <{ [22 x i8] }>* @alloc620, i32 0, i32 0, i32 0), [16 x i8] c"\16\00\00\00\00\00\00\00\AE\00\00\00\09\00\00\00" }>, align 8
@alloc622 = private unnamed_addr constant <{ [24 x i8] }> <{ [24 x i8] c"src/incomplete_arrays.rs" }>, align 1
@alloc623 = private unnamed_addr constant <{ i8*, [16 x i8] }> <{ i8* getelementptr inbounds (<{ [24 x i8] }>, <{ [24 x i8] }>* @alloc622, i32 0, i32 0, i32 0), [16 x i8] c"\18\00\00\00\00\00\00\00D\00\00\00\09\00\00\00" }>, align 8
@alloc666 = private unnamed_addr constant <{ [18 x i8] }> <{ [18 x i8] c"src/test_arrays.rs" }>, align 1
@alloc625 = private unnamed_addr constant <{ i8*, [16 x i8] }> <{ i8* getelementptr inbounds (<{ [18 x i8] }>, <{ [18 x i8] }>* @alloc666, i32 0, i32 0, i32 0), [16 x i8] c"\12\00\00\00\00\00\00\00!\00\00\00\09\00\00\00" }>, align 8
@alloc627 = private unnamed_addr constant <{ i8*, [16 x i8] }> <{ i8* getelementptr inbounds (<{ [18 x i8] }>, <{ [18 x i8] }>* @alloc666, i32 0, i32 0, i32 0), [16 x i8] c"\12\00\00\00\00\00\00\00(\00\00\00\09\00\00\00" }>, align 8
@alloc629 = private unnamed_addr constant <{ i8*, [16 x i8] }> <{ i8* getelementptr inbounds (<{ [18 x i8] }>, <{ [18 x i8] }>* @alloc666, i32 0, i32 0, i32 0), [16 x i8] c"\12\00\00\00\00\00\00\00<\00\00\00\14\00\00\00" }>, align 8
@alloc631 = private unnamed_addr constant <{ i8*, [16 x i8] }> <{ i8* getelementptr inbounds (<{ [18 x i8] }>, <{ [18 x i8] }>* @alloc666, i32 0, i32 0, i32 0), [16 x i8] c"\12\00\00\00\00\00\00\00<\00\00\00#\00\00\00" }>, align 8
@alloc633 = private unnamed_addr constant <{ i8*, [16 x i8] }> <{ i8* getelementptr inbounds (<{ [18 x i8] }>, <{ [18 x i8] }>* @alloc666, i32 0, i32 0, i32 0), [16 x i8] c"\12\00\00\00\00\00\00\00<\00\00\00\09\00\00\00" }>, align 8
@alloc635 = private unnamed_addr constant <{ i8*, [16 x i8] }> <{ i8* getelementptr inbounds (<{ [18 x i8] }>, <{ [18 x i8] }>* @alloc666, i32 0, i32 0, i32 0), [16 x i8] c"\12\00\00\00\00\00\00\00=\00\00\00\14\00\00\00" }>, align 8
@alloc637 = private unnamed_addr constant <{ i8*, [16 x i8] }> <{ i8* getelementptr inbounds (<{ [18 x i8] }>, <{ [18 x i8] }>* @alloc666, i32 0, i32 0, i32 0), [16 x i8] c"\12\00\00\00\00\00\00\00=\00\00\00#\00\00\00" }>, align 8
@alloc307 = private unnamed_addr constant <{ [7 x i8] }> <{ [7 x i8] c"index: " }>, align 1
@alloc308 = private unnamed_addr constant <{ i8*, [8 x i8] }> <{ i8* getelementptr inbounds (<{ [7 x i8] }>, <{ [7 x i8] }>* @alloc307, i32 0, i32 0, i32 0), [8 x i8] c"\07\00\00\00\00\00\00\00" }>, align 8
@alloc639 = private unnamed_addr constant <{ i8*, [16 x i8] }> <{ i8* getelementptr inbounds (<{ [18 x i8] }>, <{ [18 x i8] }>* @alloc666, i32 0, i32 0, i32 0), [16 x i8] c"\12\00\00\00\00\00\00\00=\00\00\00\09\00\00\00" }>, align 8
@alloc641 = private unnamed_addr constant <{ i8*, [16 x i8] }> <{ i8* getelementptr inbounds (<{ [18 x i8] }>, <{ [18 x i8] }>* @alloc666, i32 0, i32 0, i32 0), [16 x i8] c"\12\00\00\00\00\00\00\00L\00\00\00\05\00\00\00" }>, align 8
@alloc643 = private unnamed_addr constant <{ i8*, [16 x i8] }> <{ i8* getelementptr inbounds (<{ [18 x i8] }>, <{ [18 x i8] }>* @alloc666, i32 0, i32 0, i32 0), [16 x i8] c"\12\00\00\00\00\00\00\00M\00\00\00\05\00\00\00" }>, align 8
@alloc645 = private unnamed_addr constant <{ i8*, [16 x i8] }> <{ i8* getelementptr inbounds (<{ [18 x i8] }>, <{ [18 x i8] }>* @alloc666, i32 0, i32 0, i32 0), [16 x i8] c"\12\00\00\00\00\00\00\00`\00\00\00\14\00\00\00" }>, align 8
@alloc647 = private unnamed_addr constant <{ i8*, [16 x i8] }> <{ i8* getelementptr inbounds (<{ [18 x i8] }>, <{ [18 x i8] }>* @alloc666, i32 0, i32 0, i32 0), [16 x i8] c"\12\00\00\00\00\00\00\00`\00\00\00#\00\00\00" }>, align 8
@alloc649 = private unnamed_addr constant <{ i8*, [16 x i8] }> <{ i8* getelementptr inbounds (<{ [18 x i8] }>, <{ [18 x i8] }>* @alloc666, i32 0, i32 0, i32 0), [16 x i8] c"\12\00\00\00\00\00\00\00`\00\00\00\09\00\00\00" }>, align 8
@alloc651 = private unnamed_addr constant <{ i8*, [16 x i8] }> <{ i8* getelementptr inbounds (<{ [18 x i8] }>, <{ [18 x i8] }>* @alloc666, i32 0, i32 0, i32 0), [16 x i8] c"\12\00\00\00\00\00\00\00a\00\00\00\14\00\00\00" }>, align 8
@alloc653 = private unnamed_addr constant <{ i8*, [16 x i8] }> <{ i8* getelementptr inbounds (<{ [18 x i8] }>, <{ [18 x i8] }>* @alloc666, i32 0, i32 0, i32 0), [16 x i8] c"\12\00\00\00\00\00\00\00a\00\00\00#\00\00\00" }>, align 8
@alloc655 = private unnamed_addr constant <{ i8*, [16 x i8] }> <{ i8* getelementptr inbounds (<{ [18 x i8] }>, <{ [18 x i8] }>* @alloc666, i32 0, i32 0, i32 0), [16 x i8] c"\12\00\00\00\00\00\00\00a\00\00\00\09\00\00\00" }>, align 8
@alloc657 = private unnamed_addr constant <{ i8*, [16 x i8] }> <{ i8* getelementptr inbounds (<{ [18 x i8] }>, <{ [18 x i8] }>* @alloc666, i32 0, i32 0, i32 0), [16 x i8] c"\12\00\00\00\00\00\00\00u\00\00\00\14\00\00\00" }>, align 8
@alloc659 = private unnamed_addr constant <{ i8*, [16 x i8] }> <{ i8* getelementptr inbounds (<{ [18 x i8] }>, <{ [18 x i8] }>* @alloc666, i32 0, i32 0, i32 0), [16 x i8] c"\12\00\00\00\00\00\00\00u\00\00\00#\00\00\00" }>, align 8
@alloc661 = private unnamed_addr constant <{ i8*, [16 x i8] }> <{ i8* getelementptr inbounds (<{ [18 x i8] }>, <{ [18 x i8] }>* @alloc666, i32 0, i32 0, i32 0), [16 x i8] c"\12\00\00\00\00\00\00\00u\00\00\00\09\00\00\00" }>, align 8
@alloc663 = private unnamed_addr constant <{ i8*, [16 x i8] }> <{ i8* getelementptr inbounds (<{ [18 x i8] }>, <{ [18 x i8] }>* @alloc666, i32 0, i32 0, i32 0), [16 x i8] c"\12\00\00\00\00\00\00\00v\00\00\00\14\00\00\00" }>, align 8
@alloc665 = private unnamed_addr constant <{ i8*, [16 x i8] }> <{ i8* getelementptr inbounds (<{ [18 x i8] }>, <{ [18 x i8] }>* @alloc666, i32 0, i32 0, i32 0), [16 x i8] c"\12\00\00\00\00\00\00\00v\00\00\00#\00\00\00" }>, align 8
@alloc667 = private unnamed_addr constant <{ i8*, [16 x i8] }> <{ i8* getelementptr inbounds (<{ [18 x i8] }>, <{ [18 x i8] }>* @alloc666, i32 0, i32 0, i32 0), [16 x i8] c"\12\00\00\00\00\00\00\00v\00\00\00\09\00\00\00" }>, align 8
@alloc32 = private unnamed_addr constant <{ [35 x i8] }> <{ [35 x i8] c"test_arrays::test_sized_array_impls" }>, align 1
@alloc331 = private unnamed_addr constant <{ [1 x i8], [7 x i8], i8*, [8 x i8], [16 x i8], [8 x i8], [8 x i8], [8 x i8], [16 x i8], [4 x i8], [4 x i8], [8 x i8], i8*, [8 x i8] }> <{ [1 x i8] zeroinitializer, [7 x i8] undef, i8* getelementptr inbounds (<{ [35 x i8] }>, <{ [35 x i8] }>* @alloc32, i32 0, i32 0, i32 0), [8 x i8] c"#\00\00\00\00\00\00\00", [16 x i8] undef, [8 x i8] zeroinitializer, [8 x i8] undef, [8 x i8] zeroinitializer, [16 x i8] undef, [4 x i8] zeroinitializer, [4 x i8] undef, [8 x i8] zeroinitializer, i8* bitcast (void ()* @_ZN4core3ops8function6FnOnce9call_once17h164bb907954cf641E to i8*), [8 x i8] undef }>, align 8
@alloc42 = private unnamed_addr constant <{ [41 x i8] }> <{ [41 x i8] c"test_arrays::test_global_incomplete_array" }>, align 1
@alloc332 = private unnamed_addr constant <{ [1 x i8], [7 x i8], i8*, [8 x i8], [16 x i8], [8 x i8], [8 x i8], [8 x i8], [16 x i8], [4 x i8], [4 x i8], [8 x i8], i8*, [8 x i8] }> <{ [1 x i8] zeroinitializer, [7 x i8] undef, i8* getelementptr inbounds (<{ [41 x i8] }>, <{ [41 x i8] }>* @alloc42, i32 0, i32 0, i32 0), [8 x i8] c")\00\00\00\00\00\00\00", [16 x i8] undef, [8 x i8] zeroinitializer, [8 x i8] undef, [8 x i8] zeroinitializer, [16 x i8] undef, [4 x i8] zeroinitializer, [4 x i8] undef, [8 x i8] zeroinitializer, i8* bitcast (void ()* @_ZN4core3ops8function6FnOnce9call_once17hb61f48e33c63604dE to i8*), [8 x i8] undef }>, align 8
@alloc52 = private unnamed_addr constant <{ [24 x i8] }> <{ [24 x i8] c"test_arrays::test_buffer" }>, align 1
@alloc333 = private unnamed_addr constant <{ [1 x i8], [7 x i8], i8*, [8 x i8], [16 x i8], [8 x i8], [8 x i8], [8 x i8], [16 x i8], [4 x i8], [4 x i8], [8 x i8], i8*, [8 x i8] }> <{ [1 x i8] zeroinitializer, [7 x i8] undef, i8* getelementptr inbounds (<{ [24 x i8] }>, <{ [24 x i8] }>* @alloc52, i32 0, i32 0, i32 0), [8 x i8] c"\18\00\00\00\00\00\00\00", [16 x i8] undef, [8 x i8] zeroinitializer, [8 x i8] undef, [8 x i8] zeroinitializer, [16 x i8] undef, [4 x i8] zeroinitializer, [4 x i8] undef, [8 x i8] zeroinitializer, i8* bitcast (void ()* @_ZN4core3ops8function6FnOnce9call_once17h08e82f09d96cd0c3E to i8*), [8 x i8] undef }>, align 8
@alloc62 = private unnamed_addr constant <{ [25 x i8] }> <{ [25 x i8] c"test_arrays::test_buffer2" }>, align 1
@alloc334 = private unnamed_addr constant <{ [1 x i8], [7 x i8], i8*, [8 x i8], [16 x i8], [8 x i8], [8 x i8], [8 x i8], [16 x i8], [4 x i8], [4 x i8], [8 x i8], i8*, [8 x i8] }> <{ [1 x i8] zeroinitializer, [7 x i8] undef, i8* getelementptr inbounds (<{ [25 x i8] }>, <{ [25 x i8] }>* @alloc62, i32 0, i32 0, i32 0), [8 x i8] c"\19\00\00\00\00\00\00\00", [16 x i8] undef, [8 x i8] zeroinitializer, [8 x i8] undef, [8 x i8] zeroinitializer, [16 x i8] undef, [4 x i8] zeroinitializer, [4 x i8] undef, [8 x i8] zeroinitializer, i8* bitcast (void ()* @_ZN4core3ops8function6FnOnce9call_once17h5854d64ef78d1e60E to i8*), [8 x i8] undef }>, align 8
@alloc72 = private unnamed_addr constant <{ [33 x i8] }> <{ [33 x i8] c"test_arrays::test_variable_arrays" }>, align 1
@alloc335 = private unnamed_addr constant <{ [1 x i8], [7 x i8], i8*, [8 x i8], [16 x i8], [8 x i8], [8 x i8], [8 x i8], [16 x i8], [4 x i8], [4 x i8], [8 x i8], i8*, [8 x i8] }> <{ [1 x i8] zeroinitializer, [7 x i8] undef, i8* getelementptr inbounds (<{ [33 x i8] }>, <{ [33 x i8] }>* @alloc72, i32 0, i32 0, i32 0), [8 x i8] c"!\00\00\00\00\00\00\00", [16 x i8] undef, [8 x i8] zeroinitializer, [8 x i8] undef, [8 x i8] zeroinitializer, [16 x i8] undef, [4 x i8] zeroinitializer, [4 x i8] undef, [8 x i8] zeroinitializer, i8* bitcast (void ()* @_ZN4core3ops8function6FnOnce9call_once17hdda276033a1f8518E to i8*), [8 x i8] undef }>, align 8
@alloc82 = private unnamed_addr constant <{ [31 x i8] }> <{ [31 x i8] c"test_arrays::test_alloca_arrays" }>, align 1
@alloc336 = private unnamed_addr constant <{ [1 x i8], [7 x i8], i8*, [8 x i8], [16 x i8], [8 x i8], [8 x i8], [8 x i8], [16 x i8], [4 x i8], [4 x i8], [8 x i8], i8*, [8 x i8] }> <{ [1 x i8] zeroinitializer, [7 x i8] undef, i8* getelementptr inbounds (<{ [31 x i8] }>, <{ [31 x i8] }>* @alloc82, i32 0, i32 0, i32 0), [8 x i8] c"\1F\00\00\00\00\00\00\00", [16 x i8] undef, [8 x i8] zeroinitializer, [8 x i8] undef, [8 x i8] zeroinitializer, [16 x i8] undef, [4 x i8] zeroinitializer, [4 x i8] undef, [8 x i8] zeroinitializer, i8* bitcast (void ()* @_ZN4core3ops8function6FnOnce9call_once17heffa5958092a6e7dE to i8*), [8 x i8] undef }>, align 8
@alloc337 = private unnamed_addr constant <{ i8*, i8*, i8*, i8*, i8*, i8* }> <{ i8* getelementptr inbounds (<{ [1 x i8], [7 x i8], i8*, [8 x i8], [16 x i8], [8 x i8], [8 x i8], [8 x i8], [16 x i8], [4 x i8], [4 x i8], [8 x i8], i8*, [8 x i8] }>, <{ [1 x i8], [7 x i8], i8*, [8 x i8], [16 x i8], [8 x i8], [8 x i8], [8 x i8], [16 x i8], [4 x i8], [4 x i8], [8 x i8], i8*, [8 x i8] }>* @alloc331, i32 0, i32 0, i32 0), i8* getelementptr inbounds (<{ [1 x i8], [7 x i8], i8*, [8 x i8], [16 x i8], [8 x i8], [8 x i8], [8 x i8], [16 x i8], [4 x i8], [4 x i8], [8 x i8], i8*, [8 x i8] }>, <{ [1 x i8], [7 x i8], i8*, [8 x i8], [16 x i8], [8 x i8], [8 x i8], [8 x i8], [16 x i8], [4 x i8], [4 x i8], [8 x i8], i8*, [8 x i8] }>* @alloc332, i32 0, i32 0, i32 0), i8* getelementptr inbounds (<{ [1 x i8], [7 x i8], i8*, [8 x i8], [16 x i8], [8 x i8], [8 x i8], [8 x i8], [16 x i8], [4 x i8], [4 x i8], [8 x i8], i8*, [8 x i8] }>, <{ [1 x i8], [7 x i8], i8*, [8 x i8], [16 x i8], [8 x i8], [8 x i8], [8 x i8], [16 x i8], [4 x i8], [4 x i8], [8 x i8], i8*, [8 x i8] }>* @alloc333, i32 0, i32 0, i32 0), i8* getelementptr inbounds (<{ [1 x i8], [7 x i8], i8*, [8 x i8], [16 x i8], [8 x i8], [8 x i8], [8 x i8], [16 x i8], [4 x i8], [4 x i8], [8 x i8], i8*, [8 x i8] }>, <{ [1 x i8], [7 x i8], i8*, [8 x i8], [16 x i8], [8 x i8], [8 x i8], [8 x i8], [16 x i8], [4 x i8], [4 x i8], [8 x i8], i8*, [8 x i8] }>* @alloc334, i32 0, i32 0, i32 0), i8* getelementptr inbounds (<{ [1 x i8], [7 x i8], i8*, [8 x i8], [16 x i8], [8 x i8], [8 x i8], [8 x i8], [16 x i8], [4 x i8], [4 x i8], [8 x i8], i8*, [8 x i8] }>, <{ [1 x i8], [7 x i8], i8*, [8 x i8], [16 x i8], [8 x i8], [8 x i8], [8 x i8], [16 x i8], [4 x i8], [4 x i8], [8 x i8], i8*, [8 x i8] }>* @alloc335, i32 0, i32 0, i32 0), i8* getelementptr inbounds (<{ [1 x i8], [7 x i8], i8*, [8 x i8], [16 x i8], [8 x i8], [8 x i8], [8 x i8], [16 x i8], [4 x i8], [4 x i8], [8 x i8], i8*, [8 x i8] }>, <{ [1 x i8], [7 x i8], i8*, [8 x i8], [16 x i8], [8 x i8], [8 x i8], [8 x i8], [16 x i8], [4 x i8], [4 x i8], [8 x i8], i8*, [8 x i8] }>* @alloc336, i32 0, i32 0, i32 0) }>, align 8
@__rustc_debug_gdb_scripts_section__ = linkonce_odr unnamed_addr constant [34 x i8] c"\01gdb_load_rust_pretty_printers.py\00", section ".debug_gdb_scripts", align 1

; <core::ptr::non_null::NonNull<T> as core::convert::From<core::ptr::unique::Unique<T>>>::from
; Function Attrs: inlinehint nonlazybind uwtable
define internal i8* @"_ZN119_$LT$core..ptr..non_null..NonNull$LT$T$GT$$u20$as$u20$core..convert..From$LT$core..ptr..unique..Unique$LT$T$GT$$GT$$GT$4from17h39c8e5f5acb73393E"(i8* %unique) unnamed_addr #0 !dbg !194 {
start:
  %ptr.dbg.spill = alloca i8*, align 8
  %self.dbg.spill1 = alloca i8*, align 8
  %self.dbg.spill = alloca i8*, align 8
  %unique.dbg.spill = alloca i8*, align 8
  %0 = alloca i8*, align 8
  store i8* %unique, i8** %unique.dbg.spill, align 8
  call void @llvm.dbg.declare(metadata i8** %unique.dbg.spill, metadata !215, metadata !DIExpression()), !dbg !216
  store i8* %unique, i8** %self.dbg.spill, align 8, !dbg !217
  call void @llvm.dbg.declare(metadata i8** %self.dbg.spill, metadata !218, metadata !DIExpression()), !dbg !226
  store i8* %unique, i8** %self.dbg.spill1, align 8, !dbg !226
  call void @llvm.dbg.declare(metadata i8** %self.dbg.spill1, metadata !227, metadata !DIExpression()), !dbg !232
  store i8* %unique, i8** %ptr.dbg.spill, align 8, !dbg !232
  call void @llvm.dbg.declare(metadata i8** %ptr.dbg.spill, metadata !234, metadata !DIExpression()), !dbg !239
  store i8* %unique, i8** %0, align 8, !dbg !239
  %1 = load i8*, i8** %0, align 8, !dbg !241, !nonnull !23, !noundef !23
  ret i8* %1, !dbg !241
}

; <alloc::collections::TryReserveError as core::convert::From<alloc::collections::TryReserveErrorKind>>::from
; Function Attrs: inlinehint nonlazybind uwtable
define internal { i64, i64 } @"_ZN122_$LT$alloc..collections..TryReserveError$u20$as$u20$core..convert..From$LT$alloc..collections..TryReserveErrorKind$GT$$GT$4from17hc4cd94cd5fec9894E"(i64 %kind.0, i64 %kind.1) unnamed_addr #0 !dbg !242 {
start:
  %kind.dbg.spill = alloca { i64, i64 }, align 8
  %0 = alloca { i64, i64 }, align 8
  %1 = getelementptr inbounds { i64, i64 }, { i64, i64 }* %kind.dbg.spill, i32 0, i32 0
  store i64 %kind.0, i64* %1, align 8
  %2 = getelementptr inbounds { i64, i64 }, { i64, i64 }* %kind.dbg.spill, i32 0, i32 1
  store i64 %kind.1, i64* %2, align 8
  call void @llvm.dbg.declare(metadata { i64, i64 }* %kind.dbg.spill, metadata !273, metadata !DIExpression()), !dbg !274
  %3 = getelementptr inbounds { i64, i64 }, { i64, i64 }* %0, i32 0, i32 0, !dbg !275
  store i64 %kind.0, i64* %3, align 8, !dbg !275
  %4 = getelementptr inbounds { i64, i64 }, { i64, i64 }* %0, i32 0, i32 1, !dbg !275
  store i64 %kind.1, i64* %4, align 8, !dbg !275
  %5 = getelementptr inbounds { i64, i64 }, { i64, i64 }* %0, i32 0, i32 0, !dbg !276
  %6 = load i64, i64* %5, align 8, !dbg !276
  %7 = getelementptr inbounds { i64, i64 }, { i64, i64 }* %0, i32 0, i32 1, !dbg !276
  %8 = load i64, i64* %7, align 8, !dbg !276, !range !277, !noundef !23
  %9 = insertvalue { i64, i64 } undef, i64 %6, 0, !dbg !276
  %10 = insertvalue { i64, i64 } %9, i64 %8, 1, !dbg !276
  ret { i64, i64 } %10, !dbg !276
}

; std::sys_common::backtrace::__rust_begin_short_backtrace
; Function Attrs: noinline nonlazybind uwtable
define internal void @_ZN3std10sys_common9backtrace28__rust_begin_short_backtrace17h1410d71afaa7f375E(void ()* %f) unnamed_addr #1 personality i32 (i32, i32, i64, %"unwind::libunwind::_Unwind_Exception"*, %"unwind::libunwind::_Unwind_Context"*)* @rust_eh_personality !dbg !278 {
start:
  %0 = alloca { i8*, i32 }, align 8
  %dummy.dbg.spill = alloca {}, align 1
  %f.dbg.spill = alloca void ()*, align 8
  %result.dbg.spill = alloca {}, align 1
  call void @llvm.dbg.declare(metadata {}* %result.dbg.spill, metadata !286, metadata !DIExpression()), !dbg !291
  store void ()* %f, void ()** %f.dbg.spill, align 8
  call void @llvm.dbg.declare(metadata void ()** %f.dbg.spill, metadata !285, metadata !DIExpression()), !dbg !292
  call void @llvm.dbg.declare(metadata {}* %dummy.dbg.spill, metadata !293, metadata !DIExpression()), !dbg !302
; call core::ops::function::FnOnce::call_once
  call void @_ZN4core3ops8function6FnOnce9call_once17h8ef4047210f3fd1aE(void ()* %f), !dbg !304
  br label %bb1, !dbg !304

bb1:                                              ; preds = %start
  call void asm sideeffect "", "r,~{memory}"({}* undef), !dbg !302, !srcloc !305
  br label %bb4, !dbg !302

bb4:                                              ; preds = %bb1
  ret void, !dbg !306

bb2:                                              ; No predecessors!
  br label %bb3, !dbg !307

bb3:                                              ; preds = %bb2
  %1 = bitcast { i8*, i32 }* %0 to i8**, !dbg !308
  %2 = load i8*, i8** %1, align 8, !dbg !308
  %3 = getelementptr inbounds { i8*, i32 }, { i8*, i32 }* %0, i32 0, i32 1, !dbg !308
  %4 = load i32, i32* %3, align 8, !dbg !308
  %5 = insertvalue { i8*, i32 } undef, i8* %2, 0, !dbg !308
  %6 = insertvalue { i8*, i32 } %5, i32 %4, 1, !dbg !308
  resume { i8*, i32 } %6, !dbg !308
}

; std::rt::lang_start
; Function Attrs: nonlazybind uwtable
define hidden i64 @_ZN3std2rt10lang_start17h960a6574b95da718E(void ()* %main, i64 %argc, i8** %argv) unnamed_addr #2 !dbg !309 {
start:
  %v.dbg.spill = alloca i64, align 8
  %argv.dbg.spill = alloca i8**, align 8
  %argc.dbg.spill = alloca i64, align 8
  %main.dbg.spill = alloca void ()*, align 8
  %_8 = alloca i64*, align 8
  %_4 = alloca i64, align 8
  store void ()* %main, void ()** %main.dbg.spill, align 8
  call void @llvm.dbg.declare(metadata void ()** %main.dbg.spill, metadata !316, metadata !DIExpression()), !dbg !321
  store i64 %argc, i64* %argc.dbg.spill, align 8
  call void @llvm.dbg.declare(metadata i64* %argc.dbg.spill, metadata !317, metadata !DIExpression()), !dbg !322
  store i8** %argv, i8*** %argv.dbg.spill, align 8
  call void @llvm.dbg.declare(metadata i8*** %argv.dbg.spill, metadata !318, metadata !DIExpression()), !dbg !323
  %0 = bitcast i64** %_8 to void ()**, !dbg !324
  store void ()* %main, void ()** %0, align 8, !dbg !324
  %_5.0 = bitcast i64** %_8 to {}*, !dbg !325
; call std::rt::lang_start_internal
  %1 = call i64 @_ZN3std2rt19lang_start_internal17h498f9556b87c8e5fE({}* align 1 %_5.0, [3 x i64]* align 8 bitcast (<{ i8*, [16 x i8], i8*, i8*, i8* }>* @vtable.0 to [3 x i64]*), i64 %argc, i8** %argv), !dbg !326
  store i64 %1, i64* %_4, align 8, !dbg !326
  br label %bb1, !dbg !326

bb1:                                              ; preds = %start
  %v = load i64, i64* %_4, align 8, !dbg !327
  store i64 %v, i64* %v.dbg.spill, align 8, !dbg !327
  call void @llvm.dbg.declare(metadata i64* %v.dbg.spill, metadata !319, metadata !DIExpression()), !dbg !328
  ret i64 %v, !dbg !329
}

; std::rt::lang_start::{{closure}}
; Function Attrs: inlinehint nonlazybind uwtable
define internal i32 @"_ZN3std2rt10lang_start28_$u7b$$u7b$closure$u7d$$u7d$17h1dbdd53c3505487dE"(i64** align 8 %_1) unnamed_addr #0 !dbg !330 {
start:
  %self.dbg.spill = alloca i8*, align 8
  %_1.dbg.spill = alloca i64**, align 8
  %self = alloca i8, align 1
  store i64** %_1, i64*** %_1.dbg.spill, align 8
  %0 = load i64**, i64*** %_1.dbg.spill, align 8, !nonnull !23, !align !336, !noundef !23
  %1 = bitcast i64** %0 to void ()**
  call void @llvm.dbg.declare(metadata i64*** %_1.dbg.spill, metadata !335, metadata !DIExpression(DW_OP_deref)), !dbg !337
  call void @llvm.dbg.declare(metadata i8* %self, metadata !338, metadata !DIExpression()), !dbg !356
  %2 = bitcast i64** %_1 to void ()**, !dbg !358
  %_4 = load void ()*, void ()** %2, align 8, !dbg !358, !nonnull !23, !noundef !23
; call std::sys_common::backtrace::__rust_begin_short_backtrace
  call void @_ZN3std10sys_common9backtrace28__rust_begin_short_backtrace17h1410d71afaa7f375E(void ()* %_4), !dbg !357
  br label %bb1, !dbg !357

bb1:                                              ; preds = %start
; call <() as std::process::Termination>::report
  %3 = call i8 @"_ZN54_$LT$$LP$$RP$$u20$as$u20$std..process..Termination$GT$6report17hc82e88fc6d5dfe88E"(), !dbg !357
  store i8 %3, i8* %self, align 1, !dbg !357
  br label %bb2, !dbg !357

bb2:                                              ; preds = %bb1
  store i8* %self, i8** %self.dbg.spill, align 8, !dbg !356
  call void @llvm.dbg.declare(metadata i8** %self.dbg.spill, metadata !359, metadata !DIExpression()), !dbg !367
  %_6 = load i8, i8* %self, align 1, !dbg !367
  %4 = zext i8 %_6 to i32, !dbg !367
  ret i32 %4, !dbg !369
}

; <bool as core::fmt::Debug>::fmt
; Function Attrs: inlinehint nonlazybind uwtable
define internal zeroext i1 @"_ZN41_$LT$bool$u20$as$u20$core..fmt..Debug$GT$3fmt17h5097fa134885aec6E"(i8* align 1 %self, %"core::fmt::Formatter"* align 8 %f) unnamed_addr #0 !dbg !370 {
start:
  %f.dbg.spill = alloca %"core::fmt::Formatter"*, align 8
  %self.dbg.spill = alloca i8*, align 8
  store i8* %self, i8** %self.dbg.spill, align 8
  call void @llvm.dbg.declare(metadata i8** %self.dbg.spill, metadata !427, metadata !DIExpression()), !dbg !429
  store %"core::fmt::Formatter"* %f, %"core::fmt::Formatter"** %f.dbg.spill, align 8
  call void @llvm.dbg.declare(metadata %"core::fmt::Formatter"** %f.dbg.spill, metadata !428, metadata !DIExpression()), !dbg !430
; call <bool as core::fmt::Display>::fmt
  %0 = call zeroext i1 @"_ZN43_$LT$bool$u20$as$u20$core..fmt..Display$GT$3fmt17h2dce19af35182c57E"(i8* align 1 %self, %"core::fmt::Formatter"* align 8 %f), !dbg !431
  br label %bb1, !dbg !431

bb1:                                              ; preds = %start
  ret i1 %0, !dbg !432
}

; <&T as core::fmt::Debug>::fmt
; Function Attrs: nonlazybind uwtable
define internal zeroext i1 @"_ZN42_$LT$$RF$T$u20$as$u20$core..fmt..Debug$GT$3fmt17h67c8af7d0ce2e79aE"(i32** align 8 %self, %"core::fmt::Formatter"* align 8 %f) unnamed_addr #2 !dbg !433 {
start:
  %f.dbg.spill = alloca %"core::fmt::Formatter"*, align 8
  %self.dbg.spill = alloca i32**, align 8
  store i32** %self, i32*** %self.dbg.spill, align 8
  call void @llvm.dbg.declare(metadata i32*** %self.dbg.spill, metadata !439, metadata !DIExpression()), !dbg !443
  store %"core::fmt::Formatter"* %f, %"core::fmt::Formatter"** %f.dbg.spill, align 8
  call void @llvm.dbg.declare(metadata %"core::fmt::Formatter"** %f.dbg.spill, metadata !440, metadata !DIExpression()), !dbg !444
  %_6 = load i32*, i32** %self, align 8, !dbg !445, !nonnull !23, !align !446, !noundef !23
; call core::fmt::num::<impl core::fmt::Debug for u32>::fmt
  %0 = call zeroext i1 @"_ZN4core3fmt3num50_$LT$impl$u20$core..fmt..Debug$u20$for$u20$u32$GT$3fmt17hd89f1680b69491a7E"(i32* align 4 %_6, %"core::fmt::Formatter"* align 8 %f), !dbg !447
  br label %bb1, !dbg !447

bb1:                                              ; preds = %start
  ret i1 %0, !dbg !448
}

; <&T as core::fmt::Debug>::fmt
; Function Attrs: nonlazybind uwtable
define internal zeroext i1 @"_ZN42_$LT$$RF$T$u20$as$u20$core..fmt..Debug$GT$3fmt17h7f6552a0aa4df737E"({ [0 x i32]*, i64 }* align 8 %self, %"core::fmt::Formatter"* align 8 %f) unnamed_addr #2 !dbg !449 {
start:
  %f.dbg.spill = alloca %"core::fmt::Formatter"*, align 8
  %self.dbg.spill = alloca { [0 x i32]*, i64 }*, align 8
  store { [0 x i32]*, i64 }* %self, { [0 x i32]*, i64 }** %self.dbg.spill, align 8
  call void @llvm.dbg.declare(metadata { [0 x i32]*, i64 }** %self.dbg.spill, metadata !459, metadata !DIExpression()), !dbg !463
  store %"core::fmt::Formatter"* %f, %"core::fmt::Formatter"** %f.dbg.spill, align 8
  call void @llvm.dbg.declare(metadata %"core::fmt::Formatter"** %f.dbg.spill, metadata !460, metadata !DIExpression()), !dbg !464
  %0 = getelementptr inbounds { [0 x i32]*, i64 }, { [0 x i32]*, i64 }* %self, i32 0, i32 0, !dbg !465
  %_6.0 = load [0 x i32]*, [0 x i32]** %0, align 8, !dbg !465, !nonnull !23, !align !446, !noundef !23
  %1 = getelementptr inbounds { [0 x i32]*, i64 }, { [0 x i32]*, i64 }* %self, i32 0, i32 1, !dbg !465
  %_6.1 = load i64, i64* %1, align 8, !dbg !465
; call <[T] as core::fmt::Debug>::fmt
  %2 = call zeroext i1 @"_ZN48_$LT$$u5b$T$u5d$$u20$as$u20$core..fmt..Debug$GT$3fmt17h99d9fb204600c614E"([0 x i32]* align 4 %_6.0, i64 %_6.1, %"core::fmt::Formatter"* align 8 %f), !dbg !466
  br label %bb1, !dbg !466

bb1:                                              ; preds = %start
  ret i1 %2, !dbg !467
}

; <&T as core::fmt::Debug>::fmt
; Function Attrs: nonlazybind uwtable
define internal zeroext i1 @"_ZN42_$LT$$RF$T$u20$as$u20$core..fmt..Debug$GT$3fmt17h8162c2433ccb8bc2E"([2 x i32]** align 8 %self, %"core::fmt::Formatter"* align 8 %f) unnamed_addr #2 !dbg !468 {
start:
  %f.dbg.spill = alloca %"core::fmt::Formatter"*, align 8
  %self.dbg.spill = alloca [2 x i32]**, align 8
  store [2 x i32]** %self, [2 x i32]*** %self.dbg.spill, align 8
  call void @llvm.dbg.declare(metadata [2 x i32]*** %self.dbg.spill, metadata !473, metadata !DIExpression()), !dbg !477
  store %"core::fmt::Formatter"* %f, %"core::fmt::Formatter"** %f.dbg.spill, align 8
  call void @llvm.dbg.declare(metadata %"core::fmt::Formatter"** %f.dbg.spill, metadata !474, metadata !DIExpression()), !dbg !478
  %_6 = load [2 x i32]*, [2 x i32]** %self, align 8, !dbg !479, !nonnull !23, !align !446, !noundef !23
; call core::array::<impl core::fmt::Debug for [T; N]>::fmt
  %0 = call zeroext i1 @"_ZN4core5array69_$LT$impl$u20$core..fmt..Debug$u20$for$u20$$u5b$T$u3b$$u20$N$u5d$$GT$3fmt17hf61e17d33cd8cebbE"([2 x i32]* align 4 %_6, %"core::fmt::Formatter"* align 8 %f), !dbg !480
  br label %bb1, !dbg !480

bb1:                                              ; preds = %start
  ret i1 %0, !dbg !481
}

; <&T as core::fmt::Debug>::fmt
; Function Attrs: nonlazybind uwtable
define internal zeroext i1 @"_ZN42_$LT$$RF$T$u20$as$u20$core..fmt..Debug$GT$3fmt17h9fdbb99fdc519e06E"(i32** align 8 %self, %"core::fmt::Formatter"* align 8 %f) unnamed_addr #2 !dbg !482 {
start:
  %f.dbg.spill = alloca %"core::fmt::Formatter"*, align 8
  %self.dbg.spill = alloca i32**, align 8
  store i32** %self, i32*** %self.dbg.spill, align 8
  call void @llvm.dbg.declare(metadata i32*** %self.dbg.spill, metadata !487, metadata !DIExpression()), !dbg !489
  store %"core::fmt::Formatter"* %f, %"core::fmt::Formatter"** %f.dbg.spill, align 8
  call void @llvm.dbg.declare(metadata %"core::fmt::Formatter"** %f.dbg.spill, metadata !488, metadata !DIExpression()), !dbg !490
  %_6 = load i32*, i32** %self, align 8, !dbg !491, !nonnull !23, !align !446, !noundef !23
; call core::fmt::num::<impl core::fmt::Debug for i32>::fmt
  %0 = call zeroext i1 @"_ZN4core3fmt3num50_$LT$impl$u20$core..fmt..Debug$u20$for$u20$i32$GT$3fmt17h9112b2fdc544d21eE"(i32* align 4 %_6, %"core::fmt::Formatter"* align 8 %f), !dbg !492
  br label %bb1, !dbg !492

bb1:                                              ; preds = %start
  ret i1 %0, !dbg !493
}

; <&T as core::fmt::Debug>::fmt
; Function Attrs: nonlazybind uwtable
define internal zeroext i1 @"_ZN42_$LT$$RF$T$u20$as$u20$core..fmt..Debug$GT$3fmt17hce03d97be8db13b2E"(i8** align 8 %self, %"core::fmt::Formatter"* align 8 %f) unnamed_addr #2 !dbg !494 {
start:
  %f.dbg.spill = alloca %"core::fmt::Formatter"*, align 8
  %self.dbg.spill = alloca i8**, align 8
  store i8** %self, i8*** %self.dbg.spill, align 8
  call void @llvm.dbg.declare(metadata i8*** %self.dbg.spill, metadata !499, metadata !DIExpression()), !dbg !503
  store %"core::fmt::Formatter"* %f, %"core::fmt::Formatter"** %f.dbg.spill, align 8
  call void @llvm.dbg.declare(metadata %"core::fmt::Formatter"** %f.dbg.spill, metadata !500, metadata !DIExpression()), !dbg !504
  %_6 = load i8*, i8** %self, align 8, !dbg !505, !nonnull !23, !align !506, !noundef !23
; call <bool as core::fmt::Debug>::fmt
  %0 = call zeroext i1 @"_ZN41_$LT$bool$u20$as$u20$core..fmt..Debug$GT$3fmt17h5097fa134885aec6E"(i8* align 1 %_6, %"core::fmt::Formatter"* align 8 %f), !dbg !507
  br label %bb1, !dbg !507

bb1:                                              ; preds = %start
  ret i1 %0, !dbg !508
}

; <[T] as core::fmt::Debug>::fmt
; Function Attrs: nonlazybind uwtable
define internal zeroext i1 @"_ZN48_$LT$$u5b$T$u5d$$u20$as$u20$core..fmt..Debug$GT$3fmt17h99d9fb204600c614E"([0 x i32]* align 4 %self.0, i64 %self.1, %"core::fmt::Formatter"* align 8 %f) unnamed_addr #2 !dbg !509 {
start:
  %self.dbg.spill1 = alloca { [0 x i32]*, i64 }, align 8
  %f.dbg.spill = alloca %"core::fmt::Formatter"*, align 8
  %self.dbg.spill = alloca { [0 x i32]*, i64 }, align 8
  %_6 = alloca %"core::fmt::builders::DebugList", align 8
  %0 = getelementptr inbounds { [0 x i32]*, i64 }, { [0 x i32]*, i64 }* %self.dbg.spill, i32 0, i32 0
  store [0 x i32]* %self.0, [0 x i32]** %0, align 8
  %1 = getelementptr inbounds { [0 x i32]*, i64 }, { [0 x i32]*, i64 }* %self.dbg.spill, i32 0, i32 1
  store i64 %self.1, i64* %1, align 8
  call void @llvm.dbg.declare(metadata { [0 x i32]*, i64 }* %self.dbg.spill, metadata !514, metadata !DIExpression()), !dbg !516
  store %"core::fmt::Formatter"* %f, %"core::fmt::Formatter"** %f.dbg.spill, align 8
  call void @llvm.dbg.declare(metadata %"core::fmt::Formatter"** %f.dbg.spill, metadata !515, metadata !DIExpression()), !dbg !517
; call core::fmt::Formatter::debug_list
  call void @_ZN4core3fmt9Formatter10debug_list17h2e70d1c34e8cb782E(%"core::fmt::builders::DebugList"* sret(%"core::fmt::builders::DebugList") %_6, %"core::fmt::Formatter"* align 8 %f), !dbg !518
  br label %bb1, !dbg !518

bb1:                                              ; preds = %start
  %2 = getelementptr inbounds { [0 x i32]*, i64 }, { [0 x i32]*, i64 }* %self.dbg.spill1, i32 0, i32 0, !dbg !519
  store [0 x i32]* %self.0, [0 x i32]** %2, align 8, !dbg !519
  %3 = getelementptr inbounds { [0 x i32]*, i64 }, { [0 x i32]*, i64 }* %self.dbg.spill1, i32 0, i32 1, !dbg !519
  store i64 %self.1, i64* %3, align 8, !dbg !519
  call void @llvm.dbg.declare(metadata { [0 x i32]*, i64 }* %self.dbg.spill1, metadata !520, metadata !DIExpression()), !dbg !542
; call core::slice::iter::Iter<T>::new
  %4 = call { i32*, i32* } @"_ZN4core5slice4iter13Iter$LT$T$GT$3new17he358f5b01646211cE"([0 x i32]* align 4 %self.0, i64 %self.1), !dbg !542
  %_8.0 = extractvalue { i32*, i32* } %4, 0, !dbg !542
  %_8.1 = extractvalue { i32*, i32* } %4, 1, !dbg !542
  br label %bb4, !dbg !542

bb4:                                              ; preds = %bb1
; call core::fmt::builders::DebugList::entries
  %_4 = call align 8 %"core::fmt::builders::DebugList"* @_ZN4core3fmt8builders9DebugList7entries17he1b33f36e666fe23E(%"core::fmt::builders::DebugList"* align 8 %_6, i32* %_8.0, i32* %_8.1), !dbg !518
  br label %bb2, !dbg !518

bb2:                                              ; preds = %bb4
; call core::fmt::builders::DebugList::finish
  %5 = call zeroext i1 @_ZN4core3fmt8builders9DebugList6finish17ha896c0aa3642bf32E(%"core::fmt::builders::DebugList"* align 8 %_4), !dbg !518
  br label %bb3, !dbg !518

bb3:                                              ; preds = %bb2
  ret i1 %5, !dbg !543
}

; <usize as core::iter::range::Step>::forward_unchecked
; Function Attrs: inlinehint nonlazybind uwtable
define internal i64 @"_ZN49_$LT$usize$u20$as$u20$core..iter..range..Step$GT$17forward_unchecked17hcad913c0659dde8dE"(i64 %start1, i64 %n) unnamed_addr #0 !dbg !544 {
start:
  %0 = alloca i64, align 8
  %rhs.dbg.spill = alloca i64, align 8
  %self.dbg.spill = alloca i64, align 8
  %n.dbg.spill = alloca i64, align 8
  %start.dbg.spill = alloca i64, align 8
  store i64 %start1, i64* %start.dbg.spill, align 8
  call void @llvm.dbg.declare(metadata i64* %start.dbg.spill, metadata !552, metadata !DIExpression()), !dbg !554
  store i64 %n, i64* %n.dbg.spill, align 8
  call void @llvm.dbg.declare(metadata i64* %n.dbg.spill, metadata !553, metadata !DIExpression()), !dbg !555
  store i64 %start1, i64* %self.dbg.spill, align 8, !dbg !556
  call void @llvm.dbg.declare(metadata i64* %self.dbg.spill, metadata !557, metadata !DIExpression()), !dbg !565
  store i64 %n, i64* %rhs.dbg.spill, align 8, !dbg !566
  call void @llvm.dbg.declare(metadata i64* %rhs.dbg.spill, metadata !564, metadata !DIExpression()), !dbg !565
  %1 = add nuw i64 %start1, %n, !dbg !565
  store i64 %1, i64* %0, align 8, !dbg !565
  %2 = load i64, i64* %0, align 8, !dbg !565
  br label %bb1, !dbg !565

bb1:                                              ; preds = %start
  ret i64 %2, !dbg !567
}

; core::cmp::Ord::max
; Function Attrs: inlinehint nonlazybind uwtable
define internal i64 @_ZN4core3cmp3Ord3max17h3bd0472e5607e6b1E(i64 %0, i64 %1) unnamed_addr #0 personality i32 (i32, i32, i64, %"unwind::libunwind::_Unwind_Exception"*, %"unwind::libunwind::_Unwind_Context"*)* @rust_eh_personality !dbg !568 {
start:
  %2 = alloca { i8*, i32 }, align 8
  %_9 = alloca i8, align 1
  %_8 = alloca i8, align 1
  %_3 = alloca i8, align 1
  %3 = alloca i64, align 8
  %other = alloca i64, align 8
  %self = alloca i64, align 8
  store i64 %0, i64* %self, align 8
  store i64 %1, i64* %other, align 8
  call void @llvm.dbg.declare(metadata i64* %self, metadata !572, metadata !DIExpression()), !dbg !576
  call void @llvm.dbg.declare(metadata i64* %other, metadata !573, metadata !DIExpression()), !dbg !577
  store i8 1, i8* %_9, align 1, !dbg !578
  store i8 1, i8* %_8, align 1, !dbg !578
; invoke core::cmp::impls::<impl core::cmp::Ord for usize>::cmp
  %4 = invoke i8 @"_ZN4core3cmp5impls50_$LT$impl$u20$core..cmp..Ord$u20$for$u20$usize$GT$3cmp17h73e7147305a364e9E"(i64* align 8 %self, i64* align 8 %other)
          to label %bb1 unwind label %cleanup, !dbg !578, !range !579

bb8:                                              ; preds = %cleanup
  br label %bb13, !dbg !580

cleanup:                                          ; preds = %start
  %5 = landingpad { i8*, i32 }
          cleanup
  %6 = extractvalue { i8*, i32 } %5, 0
  %7 = extractvalue { i8*, i32 } %5, 1
  %8 = getelementptr inbounds { i8*, i32 }, { i8*, i32 }* %2, i32 0, i32 0
  store i8* %6, i8** %8, align 8
  %9 = getelementptr inbounds { i8*, i32 }, { i8*, i32 }* %2, i32 0, i32 1
  store i32 %7, i32* %9, align 8
  br label %bb8

bb1:                                              ; preds = %start
  store i8 %4, i8* %_3, align 1, !dbg !578
  %_7 = load i8, i8* %_3, align 1, !dbg !578, !range !579, !noundef !23
  switch i8 %_7, label %bb3 [
    i8 -1, label %bb4
    i8 0, label %bb4
    i8 1, label %bb2
  ], !dbg !581

bb13:                                             ; preds = %bb8
  %10 = load i8, i8* %_9, align 1, !dbg !580, !range !582, !noundef !23
  %11 = trunc i8 %10 to i1, !dbg !580
  br i1 %11, label %bb12, label %bb9, !dbg !580

bb3:                                              ; preds = %bb1
  unreachable, !dbg !578

bb4:                                              ; preds = %bb1, %bb1
  store i8 0, i8* %_8, align 1, !dbg !583
  %12 = load i64, i64* %other, align 8, !dbg !583
  store i64 %12, i64* %3, align 8, !dbg !583
  br label %bb5, !dbg !583

bb2:                                              ; preds = %bb1
  store i8 0, i8* %_9, align 1, !dbg !584
  %13 = load i64, i64* %self, align 8, !dbg !584
  store i64 %13, i64* %3, align 8, !dbg !584
  br label %bb5, !dbg !584

bb5:                                              ; preds = %bb4, %bb2
  %14 = load i8, i8* %_8, align 1, !dbg !580, !range !582, !noundef !23
  %15 = trunc i8 %14 to i1, !dbg !580
  br i1 %15, label %bb10, label %bb6, !dbg !580

bb6:                                              ; preds = %bb10, %bb5
  %16 = load i8, i8* %_9, align 1, !dbg !580, !range !582, !noundef !23
  %17 = trunc i8 %16 to i1, !dbg !580
  br i1 %17, label %bb11, label %bb7, !dbg !580

bb10:                                             ; preds = %bb5
  br label %bb6, !dbg !580

bb9:                                              ; preds = %bb12, %bb13
  %18 = bitcast { i8*, i32 }* %2 to i8**, !dbg !585
  %19 = load i8*, i8** %18, align 8, !dbg !585
  %20 = getelementptr inbounds { i8*, i32 }, { i8*, i32 }* %2, i32 0, i32 1, !dbg !585
  %21 = load i32, i32* %20, align 8, !dbg !585
  %22 = insertvalue { i8*, i32 } undef, i8* %19, 0, !dbg !585
  %23 = insertvalue { i8*, i32 } %22, i32 %21, 1, !dbg !585
  resume { i8*, i32 } %23, !dbg !585

bb12:                                             ; preds = %bb13
  br label %bb9, !dbg !580

bb7:                                              ; preds = %bb11, %bb6
  %24 = load i64, i64* %3, align 8, !dbg !586
  ret i64 %24, !dbg !586

bb11:                                             ; preds = %bb6
  br label %bb7, !dbg !580
}

; core::cmp::impls::<impl core::cmp::Ord for usize>::cmp
; Function Attrs: inlinehint nonlazybind uwtable
define internal i8 @"_ZN4core3cmp5impls50_$LT$impl$u20$core..cmp..Ord$u20$for$u20$usize$GT$3cmp17h73e7147305a364e9E"(i64* align 8 %self, i64* align 8 %other) unnamed_addr #0 !dbg !587 {
start:
  %other.dbg.spill = alloca i64*, align 8
  %self.dbg.spill = alloca i64*, align 8
  %0 = alloca i8, align 1
  store i64* %self, i64** %self.dbg.spill, align 8
  call void @llvm.dbg.declare(metadata i64** %self.dbg.spill, metadata !594, metadata !DIExpression()), !dbg !596
  store i64* %other, i64** %other.dbg.spill, align 8
  call void @llvm.dbg.declare(metadata i64** %other.dbg.spill, metadata !595, metadata !DIExpression()), !dbg !597
  %_4 = load i64, i64* %self, align 8, !dbg !598
  %_5 = load i64, i64* %other, align 8, !dbg !599
  %_3 = icmp ult i64 %_4, %_5, !dbg !598
  br i1 %_3, label %bb1, label %bb2, !dbg !598

bb2:                                              ; preds = %start
  %_7 = load i64, i64* %self, align 8, !dbg !600
  %_8 = load i64, i64* %other, align 8, !dbg !601
  %_6 = icmp eq i64 %_7, %_8, !dbg !600
  br i1 %_6, label %bb3, label %bb4, !dbg !600

bb1:                                              ; preds = %start
  store i8 -1, i8* %0, align 1, !dbg !602
  br label %bb6, !dbg !603

bb6:                                              ; preds = %bb5, %bb1
  %1 = load i8, i8* %0, align 1, !dbg !604, !range !579, !noundef !23
  ret i8 %1, !dbg !604

bb4:                                              ; preds = %bb2
  store i8 1, i8* %0, align 1, !dbg !605
  br label %bb5, !dbg !606

bb3:                                              ; preds = %bb2
  store i8 0, i8* %0, align 1, !dbg !607
  br label %bb5, !dbg !606

bb5:                                              ; preds = %bb4, %bb3
  br label %bb6, !dbg !603
}

; core::cmp::impls::<impl core::cmp::PartialOrd for usize>::lt
; Function Attrs: inlinehint nonlazybind uwtable
define internal zeroext i1 @"_ZN4core3cmp5impls57_$LT$impl$u20$core..cmp..PartialOrd$u20$for$u20$usize$GT$2lt17hbeede2e4dd026a93E"(i64* align 8 %self, i64* align 8 %other) unnamed_addr #0 !dbg !608 {
start:
  %other.dbg.spill = alloca i64*, align 8
  %self.dbg.spill = alloca i64*, align 8
  store i64* %self, i64** %self.dbg.spill, align 8
  call void @llvm.dbg.declare(metadata i64** %self.dbg.spill, metadata !613, metadata !DIExpression()), !dbg !615
  store i64* %other, i64** %other.dbg.spill, align 8
  call void @llvm.dbg.declare(metadata i64** %other.dbg.spill, metadata !614, metadata !DIExpression()), !dbg !616
  %_3 = load i64, i64* %self, align 8, !dbg !617
  %_4 = load i64, i64* %other, align 8, !dbg !618
  %0 = icmp ult i64 %_3, %_4, !dbg !617
  ret i1 %0, !dbg !619
}

; core::fmt::ArgumentV1::new_display
; Function Attrs: inlinehint nonlazybind uwtable
define internal { i8*, i64* } @_ZN4core3fmt10ArgumentV111new_display17h4a588785c5f75a8eE(i64* align 8 %x) unnamed_addr #0 !dbg !620 {
start:
  %0 = alloca %"core::fmt::Opaque"*, align 8
  %1 = alloca i1 (%"core::fmt::Opaque"*, %"core::fmt::Formatter"*)*, align 8
  %f.dbg.spill = alloca i1 (i64*, %"core::fmt::Formatter"*)*, align 8
  %x.dbg.spill1 = alloca i64*, align 8
  %x.dbg.spill = alloca i64*, align 8
  %2 = alloca { i8*, i64* }, align 8
  store i64* %x, i64** %x.dbg.spill, align 8
  call void @llvm.dbg.declare(metadata i64** %x.dbg.spill, metadata !634, metadata !DIExpression()), !dbg !635
  store i64* %x, i64** %x.dbg.spill1, align 8, !dbg !636
  call void @llvm.dbg.declare(metadata i64** %x.dbg.spill1, metadata !637, metadata !DIExpression()), !dbg !646
  store i1 (i64*, %"core::fmt::Formatter"*)* @"_ZN4core3fmt3num3imp54_$LT$impl$u20$core..fmt..Display$u20$for$u20$usize$GT$3fmt17h13884cc54f932e9aE", i1 (i64*, %"core::fmt::Formatter"*)** %f.dbg.spill, align 8, !dbg !648
  call void @llvm.dbg.declare(metadata i1 (i64*, %"core::fmt::Formatter"*)** %f.dbg.spill, metadata !645, metadata !DIExpression()), !dbg !646
  store i1 (%"core::fmt::Opaque"*, %"core::fmt::Formatter"*)* bitcast (i1 (i64*, %"core::fmt::Formatter"*)* @"_ZN4core3fmt3num3imp54_$LT$impl$u20$core..fmt..Display$u20$for$u20$usize$GT$3fmt17h13884cc54f932e9aE" to i1 (%"core::fmt::Opaque"*, %"core::fmt::Formatter"*)*), i1 (%"core::fmt::Opaque"*, %"core::fmt::Formatter"*)** %1, align 8, !dbg !646
  %_4 = load i1 (%"core::fmt::Opaque"*, %"core::fmt::Formatter"*)*, i1 (%"core::fmt::Opaque"*, %"core::fmt::Formatter"*)** %1, align 8, !dbg !646, !nonnull !23, !noundef !23
  br label %bb1, !dbg !646

bb1:                                              ; preds = %start
  %3 = bitcast i64* %x to %"core::fmt::Opaque"*, !dbg !646
  store %"core::fmt::Opaque"* %3, %"core::fmt::Opaque"** %0, align 8, !dbg !646
  %_6 = load %"core::fmt::Opaque"*, %"core::fmt::Opaque"** %0, align 8, !dbg !646, !nonnull !23, !align !506, !noundef !23
  br label %bb2, !dbg !646

bb2:                                              ; preds = %bb1
  %4 = bitcast { i8*, i64* }* %2 to %"core::fmt::Opaque"**, !dbg !646
  store %"core::fmt::Opaque"* %_6, %"core::fmt::Opaque"** %4, align 8, !dbg !646
  %5 = getelementptr inbounds { i8*, i64* }, { i8*, i64* }* %2, i32 0, i32 1, !dbg !646
  %6 = bitcast i64** %5 to i1 (%"core::fmt::Opaque"*, %"core::fmt::Formatter"*)**, !dbg !646
  store i1 (%"core::fmt::Opaque"*, %"core::fmt::Formatter"*)* %_4, i1 (%"core::fmt::Opaque"*, %"core::fmt::Formatter"*)** %6, align 8, !dbg !646
  %7 = getelementptr inbounds { i8*, i64* }, { i8*, i64* }* %2, i32 0, i32 0, !dbg !649
  %8 = load i8*, i8** %7, align 8, !dbg !649, !nonnull !23, !align !506, !noundef !23
  %9 = getelementptr inbounds { i8*, i64* }, { i8*, i64* }* %2, i32 0, i32 1, !dbg !649
  %10 = load i64*, i64** %9, align 8, !dbg !649, !nonnull !23, !noundef !23
  %11 = insertvalue { i8*, i64* } undef, i8* %8, 0, !dbg !649
  %12 = insertvalue { i8*, i64* } %11, i64* %10, 1, !dbg !649
  ret { i8*, i64* } %12, !dbg !649
}

; core::fmt::num::<impl core::fmt::Debug for i32>::fmt
; Function Attrs: inlinehint nonlazybind uwtable
define internal zeroext i1 @"_ZN4core3fmt3num50_$LT$impl$u20$core..fmt..Debug$u20$for$u20$i32$GT$3fmt17h9112b2fdc544d21eE"(i32* align 4 %self, %"core::fmt::Formatter"* align 8 %f) unnamed_addr #0 !dbg !650 {
start:
  %f.dbg.spill = alloca %"core::fmt::Formatter"*, align 8
  %self.dbg.spill = alloca i32*, align 8
  %0 = alloca i8, align 1
  store i32* %self, i32** %self.dbg.spill, align 8
  call void @llvm.dbg.declare(metadata i32** %self.dbg.spill, metadata !657, metadata !DIExpression()), !dbg !659
  store %"core::fmt::Formatter"* %f, %"core::fmt::Formatter"** %f.dbg.spill, align 8
  call void @llvm.dbg.declare(metadata %"core::fmt::Formatter"** %f.dbg.spill, metadata !658, metadata !DIExpression()), !dbg !660
; call core::fmt::Formatter::debug_lower_hex
  %_3 = call zeroext i1 @_ZN4core3fmt9Formatter15debug_lower_hex17h861f5ddbf758e4f9E(%"core::fmt::Formatter"* align 8 %f), !dbg !661
  br label %bb1, !dbg !661

bb1:                                              ; preds = %start
  br i1 %_3, label %bb2, label %bb4, !dbg !661

bb4:                                              ; preds = %bb1
; call core::fmt::Formatter::debug_upper_hex
  %_7 = call zeroext i1 @_ZN4core3fmt9Formatter15debug_upper_hex17h21ddf2be2e6a0fd5E(%"core::fmt::Formatter"* align 8 %f), !dbg !662
  br label %bb5, !dbg !662

bb2:                                              ; preds = %bb1
; call core::fmt::num::<impl core::fmt::LowerHex for i32>::fmt
  %1 = call zeroext i1 @"_ZN4core3fmt3num53_$LT$impl$u20$core..fmt..LowerHex$u20$for$u20$i32$GT$3fmt17h46ab6094afed2354E"(i32* align 4 %self, %"core::fmt::Formatter"* align 8 %f), !dbg !663
  %2 = zext i1 %1 to i8, !dbg !663
  store i8 %2, i8* %0, align 1, !dbg !663
  br label %bb3, !dbg !663

bb3:                                              ; preds = %bb2
  br label %bb11, !dbg !664

bb11:                                             ; preds = %bb10, %bb3
  %3 = load i8, i8* %0, align 1, !dbg !665, !range !582, !noundef !23
  %4 = trunc i8 %3 to i1, !dbg !665
  ret i1 %4, !dbg !665

bb5:                                              ; preds = %bb4
  br i1 %_7, label %bb6, label %bb8, !dbg !662

bb8:                                              ; preds = %bb5
; call core::fmt::num::imp::<impl core::fmt::Display for i32>::fmt
  %5 = call zeroext i1 @"_ZN4core3fmt3num3imp52_$LT$impl$u20$core..fmt..Display$u20$for$u20$i32$GT$3fmt17h52a4838d0eaa2babE"(i32* align 4 %self, %"core::fmt::Formatter"* align 8 %f), !dbg !666
  %6 = zext i1 %5 to i8, !dbg !666
  store i8 %6, i8* %0, align 1, !dbg !666
  br label %bb9, !dbg !666

bb6:                                              ; preds = %bb5
; call core::fmt::num::<impl core::fmt::UpperHex for i32>::fmt
  %7 = call zeroext i1 @"_ZN4core3fmt3num53_$LT$impl$u20$core..fmt..UpperHex$u20$for$u20$i32$GT$3fmt17h827553a54a7e037dE"(i32* align 4 %self, %"core::fmt::Formatter"* align 8 %f), !dbg !667
  %8 = zext i1 %7 to i8, !dbg !667
  store i8 %8, i8* %0, align 1, !dbg !667
  br label %bb7, !dbg !667

bb7:                                              ; preds = %bb6
  br label %bb10, !dbg !668

bb10:                                             ; preds = %bb9, %bb7
  br label %bb11, !dbg !664

bb9:                                              ; preds = %bb8
  br label %bb10, !dbg !668
}

; core::fmt::num::<impl core::fmt::Debug for u32>::fmt
; Function Attrs: inlinehint nonlazybind uwtable
define internal zeroext i1 @"_ZN4core3fmt3num50_$LT$impl$u20$core..fmt..Debug$u20$for$u20$u32$GT$3fmt17hd89f1680b69491a7E"(i32* align 4 %self, %"core::fmt::Formatter"* align 8 %f) unnamed_addr #0 !dbg !669 {
start:
  %f.dbg.spill = alloca %"core::fmt::Formatter"*, align 8
  %self.dbg.spill = alloca i32*, align 8
  %0 = alloca i8, align 1
  store i32* %self, i32** %self.dbg.spill, align 8
  call void @llvm.dbg.declare(metadata i32** %self.dbg.spill, metadata !674, metadata !DIExpression()), !dbg !676
  store %"core::fmt::Formatter"* %f, %"core::fmt::Formatter"** %f.dbg.spill, align 8
  call void @llvm.dbg.declare(metadata %"core::fmt::Formatter"** %f.dbg.spill, metadata !675, metadata !DIExpression()), !dbg !677
; call core::fmt::Formatter::debug_lower_hex
  %_3 = call zeroext i1 @_ZN4core3fmt9Formatter15debug_lower_hex17h861f5ddbf758e4f9E(%"core::fmt::Formatter"* align 8 %f), !dbg !678
  br label %bb1, !dbg !678

bb1:                                              ; preds = %start
  br i1 %_3, label %bb2, label %bb4, !dbg !678

bb4:                                              ; preds = %bb1
; call core::fmt::Formatter::debug_upper_hex
  %_7 = call zeroext i1 @_ZN4core3fmt9Formatter15debug_upper_hex17h21ddf2be2e6a0fd5E(%"core::fmt::Formatter"* align 8 %f), !dbg !679
  br label %bb5, !dbg !679

bb2:                                              ; preds = %bb1
; call core::fmt::num::<impl core::fmt::LowerHex for u32>::fmt
  %1 = call zeroext i1 @"_ZN4core3fmt3num53_$LT$impl$u20$core..fmt..LowerHex$u20$for$u20$u32$GT$3fmt17h4598978fc11d0a5fE"(i32* align 4 %self, %"core::fmt::Formatter"* align 8 %f), !dbg !680
  %2 = zext i1 %1 to i8, !dbg !680
  store i8 %2, i8* %0, align 1, !dbg !680
  br label %bb3, !dbg !680

bb3:                                              ; preds = %bb2
  br label %bb11, !dbg !681

bb11:                                             ; preds = %bb10, %bb3
  %3 = load i8, i8* %0, align 1, !dbg !682, !range !582, !noundef !23
  %4 = trunc i8 %3 to i1, !dbg !682
  ret i1 %4, !dbg !682

bb5:                                              ; preds = %bb4
  br i1 %_7, label %bb6, label %bb8, !dbg !679

bb8:                                              ; preds = %bb5
; call core::fmt::num::imp::<impl core::fmt::Display for u32>::fmt
  %5 = call zeroext i1 @"_ZN4core3fmt3num3imp52_$LT$impl$u20$core..fmt..Display$u20$for$u20$u32$GT$3fmt17h518f5e83165fbe37E"(i32* align 4 %self, %"core::fmt::Formatter"* align 8 %f), !dbg !683
  %6 = zext i1 %5 to i8, !dbg !683
  store i8 %6, i8* %0, align 1, !dbg !683
  br label %bb9, !dbg !683

bb6:                                              ; preds = %bb5
; call core::fmt::num::<impl core::fmt::UpperHex for u32>::fmt
  %7 = call zeroext i1 @"_ZN4core3fmt3num53_$LT$impl$u20$core..fmt..UpperHex$u20$for$u20$u32$GT$3fmt17h1d19ab97b54bf162E"(i32* align 4 %self, %"core::fmt::Formatter"* align 8 %f), !dbg !684
  %8 = zext i1 %7 to i8, !dbg !684
  store i8 %8, i8* %0, align 1, !dbg !684
  br label %bb7, !dbg !684

bb7:                                              ; preds = %bb6
  br label %bb10, !dbg !685

bb10:                                             ; preds = %bb9, %bb7
  br label %bb11, !dbg !681

bb9:                                              ; preds = %bb8
  br label %bb10, !dbg !685
}

; core::fmt::builders::DebugList::entries
; Function Attrs: nonlazybind uwtable
define internal align 8 %"core::fmt::builders::DebugList"* @_ZN4core3fmt8builders9DebugList7entries17he1b33f36e666fe23E(%"core::fmt::builders::DebugList"* align 8 %self, i32* %entries.0, i32* %entries.1) unnamed_addr #2 personality i32 (i32, i32, i64, %"unwind::libunwind::_Unwind_Exception"*, %"unwind::libunwind::_Unwind_Context"*)* @rust_eh_personality !dbg !686 {
start:
  %0 = alloca { i8*, i32 }, align 8
  %entries.dbg.spill = alloca { i32*, i32* }, align 8
  %self.dbg.spill = alloca %"core::fmt::builders::DebugList"*, align 8
  %entry = alloca i32*, align 8
  %_7 = alloca i32*, align 8
  %iter = alloca { i32*, i32* }, align 8
  store %"core::fmt::builders::DebugList"* %self, %"core::fmt::builders::DebugList"** %self.dbg.spill, align 8
  call void @llvm.dbg.declare(metadata %"core::fmt::builders::DebugList"** %self.dbg.spill, metadata !701, metadata !DIExpression()), !dbg !710
  %1 = getelementptr inbounds { i32*, i32* }, { i32*, i32* }* %entries.dbg.spill, i32 0, i32 0
  store i32* %entries.0, i32** %1, align 8
  %2 = getelementptr inbounds { i32*, i32* }, { i32*, i32* }* %entries.dbg.spill, i32 0, i32 1
  store i32* %entries.1, i32** %2, align 8
  call void @llvm.dbg.declare(metadata { i32*, i32* }* %entries.dbg.spill, metadata !702, metadata !DIExpression()), !dbg !711
  call void @llvm.dbg.declare(metadata { i32*, i32* }* %iter, metadata !703, metadata !DIExpression()), !dbg !712
  call void @llvm.dbg.declare(metadata i32** %entry, metadata !705, metadata !DIExpression()), !dbg !713
; call <I as core::iter::traits::collect::IntoIterator>::into_iter
  %3 = call { i32*, i32* } @"_ZN63_$LT$I$u20$as$u20$core..iter..traits..collect..IntoIterator$GT$9into_iter17hbedba93d2b3aafecE"(i32* %entries.0, i32* %entries.1), !dbg !714
  %_4.0 = extractvalue { i32*, i32* } %3, 0, !dbg !714
  %_4.1 = extractvalue { i32*, i32* } %3, 1, !dbg !714
  br label %bb1, !dbg !714

bb1:                                              ; preds = %start
  %4 = getelementptr inbounds { i32*, i32* }, { i32*, i32* }* %iter, i32 0, i32 0, !dbg !714
  store i32* %_4.0, i32** %4, align 8, !dbg !714
  %5 = getelementptr inbounds { i32*, i32* }, { i32*, i32* }* %iter, i32 0, i32 1, !dbg !714
  store i32* %_4.1, i32** %5, align 8, !dbg !714
  br label %bb2, !dbg !715

bb2:                                              ; preds = %bb8, %bb1
; invoke <core::slice::iter::Iter<T> as core::iter::traits::iterator::Iterator>::next
  %6 = invoke align 4 i32* @"_ZN91_$LT$core..slice..iter..Iter$LT$T$GT$$u20$as$u20$core..iter..traits..iterator..Iterator$GT$4next17h7353489ac595ce3aE"({ i32*, i32* }* align 8 %iter)
          to label %bb3 unwind label %cleanup, !dbg !712

bb11:                                             ; preds = %bb10, %cleanup
  br label %bb12, !dbg !716

cleanup:                                          ; preds = %bb2
  %7 = landingpad { i8*, i32 }
          cleanup
  %8 = extractvalue { i8*, i32 } %7, 0
  %9 = extractvalue { i8*, i32 } %7, 1
  %10 = getelementptr inbounds { i8*, i32 }, { i8*, i32 }* %0, i32 0, i32 0
  store i8* %8, i8** %10, align 8
  %11 = getelementptr inbounds { i8*, i32 }, { i8*, i32 }* %0, i32 0, i32 1
  store i32 %9, i32* %11, align 8
  br label %bb11

bb3:                                              ; preds = %bb2
  store i32* %6, i32** %_7, align 8, !dbg !712
  %12 = bitcast i32** %_7 to {}**, !dbg !712
  %13 = load {}*, {}** %12, align 8, !dbg !712
  %14 = icmp eq {}* %13, null, !dbg !712
  %_10 = select i1 %14, i64 0, i64 1, !dbg !712
  switch i64 %_10, label %bb5 [
    i64 0, label %bb6
    i64 1, label %bb4
  ], !dbg !712

bb5:                                              ; preds = %bb3
  unreachable, !dbg !712

bb6:                                              ; preds = %bb3
  br label %bb9, !dbg !716

bb4:                                              ; preds = %bb3
  %15 = load i32*, i32** %_7, align 8, !dbg !717, !nonnull !23, !align !446, !noundef !23
  store i32* %15, i32** %entry, align 8, !dbg !717
  %_14.0 = bitcast i32** %entry to {}*, !dbg !718
; invoke core::fmt::builders::DebugList::entry
  %_12 = invoke align 8 %"core::fmt::builders::DebugList"* @_ZN4core3fmt8builders9DebugList5entry17h5007920add23274dE(%"core::fmt::builders::DebugList"* align 8 %self, {}* align 1 %_14.0, [3 x i64]* align 8 bitcast (<{ i8*, [16 x i8], i8* }>* @vtable.1 to [3 x i64]*))
          to label %bb7 unwind label %cleanup1, !dbg !719

bb10:                                             ; preds = %cleanup1
  br label %bb11, !dbg !720

cleanup1:                                         ; preds = %bb4
  %16 = landingpad { i8*, i32 }
          cleanup
  %17 = extractvalue { i8*, i32 } %16, 0
  %18 = extractvalue { i8*, i32 } %16, 1
  %19 = getelementptr inbounds { i8*, i32 }, { i8*, i32 }* %0, i32 0, i32 0
  store i8* %17, i8** %19, align 8
  %20 = getelementptr inbounds { i8*, i32 }, { i8*, i32 }* %0, i32 0, i32 1
  store i32 %18, i32* %20, align 8
  br label %bb10

bb7:                                              ; preds = %bb4
  br label %bb8, !dbg !720

bb8:                                              ; preds = %bb7
  br label %bb2, !dbg !715

bb12:                                             ; preds = %bb11
  %21 = bitcast { i8*, i32 }* %0 to i8**, !dbg !721
  %22 = load i8*, i8** %21, align 8, !dbg !721
  %23 = getelementptr inbounds { i8*, i32 }, { i8*, i32 }* %0, i32 0, i32 1, !dbg !721
  %24 = load i32, i32* %23, align 8, !dbg !721
  %25 = insertvalue { i8*, i32 } undef, i8* %22, 0, !dbg !721
  %26 = insertvalue { i8*, i32 } %25, i32 %24, 1, !dbg !721
  resume { i8*, i32 } %26, !dbg !721

bb9:                                              ; preds = %bb6
  ret %"core::fmt::builders::DebugList"* %self, !dbg !722
}

; core::fmt::Arguments::new_v1
; Function Attrs: inlinehint nonlazybind uwtable
define internal void @_ZN4core3fmt9Arguments6new_v117h91724e5e2039d987E(%"core::fmt::Arguments"* sret(%"core::fmt::Arguments") %0, [0 x { [0 x i8]*, i64 }]* align 8 %pieces.0, i64 %pieces.1, [0 x { i8*, i64* }]* align 8 %args.0, i64 %args.1) unnamed_addr #0 !dbg !723 {
start:
  %args.dbg.spill = alloca { [0 x { i8*, i64* }]*, i64 }, align 8
  %pieces.dbg.spill = alloca { [0 x { [0 x i8]*, i64 }]*, i64 }, align 8
  %_24 = alloca { i64*, i64 }, align 8
  %_16 = alloca %"core::fmt::Arguments", align 8
  %_3 = alloca i8, align 1
  %1 = getelementptr inbounds { [0 x { [0 x i8]*, i64 }]*, i64 }, { [0 x { [0 x i8]*, i64 }]*, i64 }* %pieces.dbg.spill, i32 0, i32 0
  store [0 x { [0 x i8]*, i64 }]* %pieces.0, [0 x { [0 x i8]*, i64 }]** %1, align 8
  %2 = getelementptr inbounds { [0 x { [0 x i8]*, i64 }]*, i64 }, { [0 x { [0 x i8]*, i64 }]*, i64 }* %pieces.dbg.spill, i32 0, i32 1
  store i64 %pieces.1, i64* %2, align 8
  call void @llvm.dbg.declare(metadata { [0 x { [0 x i8]*, i64 }]*, i64 }* %pieces.dbg.spill, metadata !791, metadata !DIExpression()), !dbg !793
  %3 = getelementptr inbounds { [0 x { i8*, i64* }]*, i64 }, { [0 x { i8*, i64* }]*, i64 }* %args.dbg.spill, i32 0, i32 0
  store [0 x { i8*, i64* }]* %args.0, [0 x { i8*, i64* }]** %3, align 8
  %4 = getelementptr inbounds { [0 x { i8*, i64* }]*, i64 }, { [0 x { i8*, i64* }]*, i64 }* %args.dbg.spill, i32 0, i32 1
  store i64 %args.1, i64* %4, align 8
  call void @llvm.dbg.declare(metadata { [0 x { i8*, i64* }]*, i64 }* %args.dbg.spill, metadata !792, metadata !DIExpression()), !dbg !794
  %_4 = icmp ult i64 %pieces.1, %args.1, !dbg !795
  br i1 %_4, label %bb1, label %bb2, !dbg !795

bb2:                                              ; preds = %start
  %_12 = add i64 %args.1, 1, !dbg !796
  %_9 = icmp ugt i64 %pieces.1, %_12, !dbg !797
  %5 = zext i1 %_9 to i8, !dbg !795
  store i8 %5, i8* %_3, align 1, !dbg !795
  br label %bb3, !dbg !795

bb1:                                              ; preds = %start
  store i8 1, i8* %_3, align 1, !dbg !795
  br label %bb3, !dbg !795

bb3:                                              ; preds = %bb2, %bb1
  %6 = load i8, i8* %_3, align 1, !dbg !795, !range !582, !noundef !23
  %7 = trunc i8 %6 to i1, !dbg !795
  br i1 %7, label %bb4, label %bb6, !dbg !795

bb6:                                              ; preds = %bb3
  %8 = bitcast { i64*, i64 }* %_24 to {}**, !dbg !798
  store {}* null, {}** %8, align 8, !dbg !798
  %9 = bitcast %"core::fmt::Arguments"* %0 to { [0 x { [0 x i8]*, i64 }]*, i64 }*, !dbg !799
  %10 = getelementptr inbounds { [0 x { [0 x i8]*, i64 }]*, i64 }, { [0 x { [0 x i8]*, i64 }]*, i64 }* %9, i32 0, i32 0, !dbg !799
  store [0 x { [0 x i8]*, i64 }]* %pieces.0, [0 x { [0 x i8]*, i64 }]** %10, align 8, !dbg !799
  %11 = getelementptr inbounds { [0 x { [0 x i8]*, i64 }]*, i64 }, { [0 x { [0 x i8]*, i64 }]*, i64 }* %9, i32 0, i32 1, !dbg !799
  store i64 %pieces.1, i64* %11, align 8, !dbg !799
  %12 = getelementptr inbounds %"core::fmt::Arguments", %"core::fmt::Arguments"* %0, i32 0, i32 1, !dbg !799
  %13 = getelementptr inbounds { i64*, i64 }, { i64*, i64 }* %_24, i32 0, i32 0, !dbg !799
  %14 = load i64*, i64** %13, align 8, !dbg !799, !align !336
  %15 = getelementptr inbounds { i64*, i64 }, { i64*, i64 }* %_24, i32 0, i32 1, !dbg !799
  %16 = load i64, i64* %15, align 8, !dbg !799
  %17 = getelementptr inbounds { i64*, i64 }, { i64*, i64 }* %12, i32 0, i32 0, !dbg !799
  store i64* %14, i64** %17, align 8, !dbg !799
  %18 = getelementptr inbounds { i64*, i64 }, { i64*, i64 }* %12, i32 0, i32 1, !dbg !799
  store i64 %16, i64* %18, align 8, !dbg !799
  %19 = getelementptr inbounds %"core::fmt::Arguments", %"core::fmt::Arguments"* %0, i32 0, i32 2, !dbg !799
  %20 = getelementptr inbounds { [0 x { i8*, i64* }]*, i64 }, { [0 x { i8*, i64* }]*, i64 }* %19, i32 0, i32 0, !dbg !799
  store [0 x { i8*, i64* }]* %args.0, [0 x { i8*, i64* }]** %20, align 8, !dbg !799
  %21 = getelementptr inbounds { [0 x { i8*, i64* }]*, i64 }, { [0 x { i8*, i64* }]*, i64 }* %19, i32 0, i32 1, !dbg !799
  store i64 %args.1, i64* %21, align 8, !dbg !799
  ret void, !dbg !800

bb4:                                              ; preds = %bb3
; call core::fmt::Arguments::new_v1
  call void @_ZN4core3fmt9Arguments6new_v117h91724e5e2039d987E(%"core::fmt::Arguments"* sret(%"core::fmt::Arguments") %_16, [0 x { [0 x i8]*, i64 }]* align 8 bitcast (<{ i8*, [8 x i8] }>* @alloc127 to [0 x { [0 x i8]*, i64 }]*), i64 1, [0 x { i8*, i64* }]* align 8 bitcast (<{}>* @alloc284 to [0 x { i8*, i64* }]*), i64 0), !dbg !801
  br label %bb5, !dbg !801

bb5:                                              ; preds = %bb4
; call core::panicking::panic_fmt
  call void @_ZN4core9panicking9panic_fmt17h62ccf03c8a8a51b5E(%"core::fmt::Arguments"* %_16, %"core::panic::location::Location"* align 8 bitcast (<{ i8*, [16 x i8] }>* @alloc432 to %"core::panic::location::Location"*)) #15, !dbg !801
  unreachable, !dbg !801
}

; core::mem::replace
; Function Attrs: inlinehint nonlazybind uwtable
define internal i64 @_ZN4core3mem7replace17ha2dc615712323ff3E(i64* align 8 %dest, i64 %src) unnamed_addr #0 personality i32 (i32, i32, i64, %"unwind::libunwind::_Unwind_Exception"*, %"unwind::libunwind::_Unwind_Context"*)* @rust_eh_personality !dbg !802 {
start:
  %dst.dbg.spill = alloca i64*, align 8
  %result.dbg.spill = alloca i64, align 8
  %slot.dbg.spill = alloca i64, align 8
  %0 = alloca { i8*, i32 }, align 8
  %self.dbg.spill3 = alloca i64, align 8
  %self.dbg.spill = alloca i64*, align 8
  %src.dbg.spill2 = alloca i64*, align 8
  %src.dbg.spill = alloca i64, align 8
  %dest.dbg.spill = alloca i64*, align 8
  %tmp = alloca i64, align 8
  %src1 = alloca i64, align 8
  store i64* %dest, i64** %dest.dbg.spill, align 8
  call void @llvm.dbg.declare(metadata i64** %dest.dbg.spill, metadata !808, metadata !DIExpression()), !dbg !812
  store i64 %src, i64* %src.dbg.spill, align 8
  call void @llvm.dbg.declare(metadata i64* %src.dbg.spill, metadata !809, metadata !DIExpression()), !dbg !813
  call void @llvm.dbg.declare(metadata i64* %src1, metadata !814, metadata !DIExpression()), !dbg !823
  call void @llvm.dbg.declare(metadata i64* %tmp, metadata !825, metadata !DIExpression()), !dbg !844
  store i64* %dest, i64** %src.dbg.spill2, align 8, !dbg !846
  call void @llvm.dbg.declare(metadata i64** %src.dbg.spill2, metadata !833, metadata !DIExpression()), !dbg !847
  %1 = bitcast i64* %tmp to {}*, !dbg !848
  store i64* %tmp, i64** %self.dbg.spill, align 8, !dbg !844
  call void @llvm.dbg.declare(metadata i64** %self.dbg.spill, metadata !855, metadata !DIExpression()), !dbg !862
  %2 = bitcast i64* %tmp to i8*, !dbg !844
  %3 = bitcast i64* %dest to i8*, !dbg !844
  call void @llvm.memcpy.p0i8.p0i8.i64(i8* align 8 %2, i8* align 8 %3, i64 8, i1 false), !dbg !844
  %self = load i64, i64* %tmp, align 8, !dbg !844
  store i64 %self, i64* %self.dbg.spill3, align 8, !dbg !844
  call void @llvm.dbg.declare(metadata i64* %self.dbg.spill3, metadata !864, metadata !DIExpression()), !dbg !878
  br label %bb4, !dbg !878

bb4:                                              ; preds = %start
  store i64 %self, i64* %slot.dbg.spill, align 8, !dbg !878
  call void @llvm.dbg.declare(metadata i64* %slot.dbg.spill, metadata !880, metadata !DIExpression()), !dbg !887
  store i64 %self, i64* %result.dbg.spill, align 8, !dbg !887
  call void @llvm.dbg.declare(metadata i64* %result.dbg.spill, metadata !810, metadata !DIExpression()), !dbg !889
  store i64* %dest, i64** %dst.dbg.spill, align 8, !dbg !890
  call void @llvm.dbg.declare(metadata i64** %dst.dbg.spill, metadata !822, metadata !DIExpression()), !dbg !823
  store i64 %src, i64* %src1, align 8, !dbg !891
  %4 = bitcast i64* %dest to i8*, !dbg !823
  %5 = bitcast i64* %src1 to i8*, !dbg !823
  call void @llvm.memcpy.p0i8.p0i8.i64(i8* align 8 %4, i8* align 8 %5, i64 8, i1 false), !dbg !823
  ret i64 %self, !dbg !892

bb3:                                              ; No predecessors!
  br i1 true, label %bb2, label %bb1, !dbg !893

bb1:                                              ; preds = %bb2, %bb3
  %6 = bitcast { i8*, i32 }* %0 to i8**, !dbg !894
  %7 = load i8*, i8** %6, align 8, !dbg !894
  %8 = getelementptr inbounds { i8*, i32 }, { i8*, i32 }* %0, i32 0, i32 1, !dbg !894
  %9 = load i32, i32* %8, align 8, !dbg !894
  %10 = insertvalue { i8*, i32 } undef, i8* %7, 0, !dbg !894
  %11 = insertvalue { i8*, i32 } %10, i32 %9, 1, !dbg !894
  resume { i8*, i32 } %11, !dbg !894

bb2:                                              ; preds = %bb3
  br label %bb1, !dbg !893
}

; core::num::<impl usize>::checked_add
; Function Attrs: inlinehint nonlazybind uwtable
define internal { i64, i64 } @"_ZN4core3num23_$LT$impl$u20$usize$GT$11checked_add17h251db5f99c8c8fc4E"(i64 %self, i64 %rhs) unnamed_addr #0 !dbg !895 {
start:
  %0 = alloca i8, align 1
  %b.dbg.spill4 = alloca i8, align 1
  %a.dbg.spill3 = alloca i64, align 8
  %b.dbg.spill = alloca i8, align 1
  %a.dbg.spill = alloca i64, align 8
  %1 = alloca { i64, i8 }, align 8
  %rhs.dbg.spill2 = alloca i64, align 8
  %self.dbg.spill1 = alloca i64, align 8
  %rhs.dbg.spill = alloca i64, align 8
  %self.dbg.spill = alloca i64, align 8
  %_5 = alloca { i64, i8 }, align 8
  %2 = alloca { i64, i64 }, align 8
  store i64 %self, i64* %self.dbg.spill, align 8
  call void @llvm.dbg.declare(metadata i64* %self.dbg.spill, metadata !899, metadata !DIExpression()), !dbg !904
  store i64 %rhs, i64* %rhs.dbg.spill, align 8
  call void @llvm.dbg.declare(metadata i64* %rhs.dbg.spill, metadata !900, metadata !DIExpression()), !dbg !905
  store i64 %self, i64* %self.dbg.spill1, align 8, !dbg !906
  call void @llvm.dbg.declare(metadata i64* %self.dbg.spill1, metadata !907, metadata !DIExpression()), !dbg !920
  store i64 %rhs, i64* %rhs.dbg.spill2, align 8, !dbg !921
  call void @llvm.dbg.declare(metadata i64* %rhs.dbg.spill2, metadata !916, metadata !DIExpression()), !dbg !920
  %3 = call { i64, i1 } @llvm.uadd.with.overflow.i64(i64 %self, i64 %rhs), !dbg !920
  %4 = extractvalue { i64, i1 } %3, 0, !dbg !920
  %5 = extractvalue { i64, i1 } %3, 1, !dbg !920
  %6 = zext i1 %5 to i8, !dbg !920
  %7 = bitcast { i64, i8 }* %1 to i64*, !dbg !920
  store i64 %4, i64* %7, align 8, !dbg !920
  %8 = getelementptr inbounds { i64, i8 }, { i64, i8 }* %1, i32 0, i32 1, !dbg !920
  store i8 %6, i8* %8, align 8, !dbg !920
  %9 = getelementptr inbounds { i64, i8 }, { i64, i8 }* %1, i32 0, i32 0, !dbg !920
  %_13.0 = load i64, i64* %9, align 8, !dbg !920
  %10 = getelementptr inbounds { i64, i8 }, { i64, i8 }* %1, i32 0, i32 1, !dbg !920
  %11 = load i8, i8* %10, align 8, !dbg !920, !range !582, !noundef !23
  %_13.1 = trunc i8 %11 to i1, !dbg !920
  br label %bb5, !dbg !920

bb5:                                              ; preds = %start
  store i64 %_13.0, i64* %a.dbg.spill, align 8, !dbg !920
  call void @llvm.dbg.declare(metadata i64* %a.dbg.spill, metadata !917, metadata !DIExpression()), !dbg !922
  %12 = zext i1 %_13.1 to i8, !dbg !920
  store i8 %12, i8* %b.dbg.spill, align 1, !dbg !920
  call void @llvm.dbg.declare(metadata i8* %b.dbg.spill, metadata !919, metadata !DIExpression()), !dbg !922
  %13 = bitcast { i64, i8 }* %_5 to i64*, !dbg !922
  store i64 %_13.0, i64* %13, align 8, !dbg !922
  %14 = getelementptr inbounds { i64, i8 }, { i64, i8 }* %_5, i32 0, i32 1, !dbg !922
  %15 = zext i1 %_13.1 to i8, !dbg !922
  store i8 %15, i8* %14, align 8, !dbg !922
  %16 = bitcast { i64, i8 }* %_5 to i64*, !dbg !923
  %a = load i64, i64* %16, align 8, !dbg !923
  store i64 %a, i64* %a.dbg.spill3, align 8, !dbg !923
  call void @llvm.dbg.declare(metadata i64* %a.dbg.spill3, metadata !901, metadata !DIExpression()), !dbg !924
  %17 = getelementptr inbounds { i64, i8 }, { i64, i8 }* %_5, i32 0, i32 1, !dbg !925
  %18 = load i8, i8* %17, align 8, !dbg !925, !range !582, !noundef !23
  %b = trunc i8 %18 to i1, !dbg !925
  %19 = zext i1 %b to i8, !dbg !925
  store i8 %19, i8* %b.dbg.spill4, align 1, !dbg !925
  call void @llvm.dbg.declare(metadata i8* %b.dbg.spill4, metadata !903, metadata !DIExpression()), !dbg !926
  %20 = call i1 @llvm.expect.i1(i1 %b, i1 false), !dbg !927
  %21 = zext i1 %20 to i8, !dbg !927
  store i8 %21, i8* %0, align 1, !dbg !927
  %22 = load i8, i8* %0, align 1, !dbg !927, !range !582, !noundef !23
  %_8 = trunc i8 %22 to i1, !dbg !927
  br label %bb1, !dbg !927

bb1:                                              ; preds = %bb5
  br i1 %_8, label %bb2, label %bb3, !dbg !927

bb3:                                              ; preds = %bb1
  %23 = getelementptr inbounds { i64, i64 }, { i64, i64 }* %2, i32 0, i32 1, !dbg !928
  store i64 %a, i64* %23, align 8, !dbg !928
  %24 = bitcast { i64, i64 }* %2 to i64*, !dbg !928
  store i64 1, i64* %24, align 8, !dbg !928
  br label %bb4, !dbg !929

bb2:                                              ; preds = %bb1
  %25 = bitcast { i64, i64 }* %2 to i64*, !dbg !930
  store i64 0, i64* %25, align 8, !dbg !930
  br label %bb4, !dbg !929

bb4:                                              ; preds = %bb3, %bb2
  %26 = getelementptr inbounds { i64, i64 }, { i64, i64 }* %2, i32 0, i32 0, !dbg !931
  %27 = load i64, i64* %26, align 8, !dbg !931, !range !932, !noundef !23
  %28 = getelementptr inbounds { i64, i64 }, { i64, i64 }* %2, i32 0, i32 1, !dbg !931
  %29 = load i64, i64* %28, align 8, !dbg !931
  %30 = insertvalue { i64, i64 } undef, i64 %27, 0, !dbg !931
  %31 = insertvalue { i64, i64 } %30, i64 %29, 1, !dbg !931
  ret { i64, i64 } %31, !dbg !931
}

; core::num::<impl usize>::checked_mul
; Function Attrs: inlinehint nonlazybind uwtable
define internal { i64, i64 } @"_ZN4core3num23_$LT$impl$u20$usize$GT$11checked_mul17h5275f3d8f38f5cedE"(i64 %self, i64 %rhs) unnamed_addr #0 !dbg !933 {
start:
  %0 = alloca i8, align 1
  %b.dbg.spill4 = alloca i8, align 1
  %a.dbg.spill3 = alloca i64, align 8
  %b.dbg.spill = alloca i8, align 1
  %a.dbg.spill = alloca i64, align 8
  %1 = alloca { i64, i8 }, align 8
  %rhs.dbg.spill2 = alloca i64, align 8
  %self.dbg.spill1 = alloca i64, align 8
  %rhs.dbg.spill = alloca i64, align 8
  %self.dbg.spill = alloca i64, align 8
  %_5 = alloca { i64, i8 }, align 8
  %2 = alloca { i64, i64 }, align 8
  store i64 %self, i64* %self.dbg.spill, align 8
  call void @llvm.dbg.declare(metadata i64* %self.dbg.spill, metadata !935, metadata !DIExpression()), !dbg !940
  store i64 %rhs, i64* %rhs.dbg.spill, align 8
  call void @llvm.dbg.declare(metadata i64* %rhs.dbg.spill, metadata !936, metadata !DIExpression()), !dbg !941
  store i64 %self, i64* %self.dbg.spill1, align 8, !dbg !942
  call void @llvm.dbg.declare(metadata i64* %self.dbg.spill1, metadata !943, metadata !DIExpression()), !dbg !950
  store i64 %rhs, i64* %rhs.dbg.spill2, align 8, !dbg !951
  call void @llvm.dbg.declare(metadata i64* %rhs.dbg.spill2, metadata !946, metadata !DIExpression()), !dbg !950
  %3 = call { i64, i1 } @llvm.umul.with.overflow.i64(i64 %self, i64 %rhs), !dbg !950
  %4 = extractvalue { i64, i1 } %3, 0, !dbg !950
  %5 = extractvalue { i64, i1 } %3, 1, !dbg !950
  %6 = zext i1 %5 to i8, !dbg !950
  %7 = bitcast { i64, i8 }* %1 to i64*, !dbg !950
  store i64 %4, i64* %7, align 8, !dbg !950
  %8 = getelementptr inbounds { i64, i8 }, { i64, i8 }* %1, i32 0, i32 1, !dbg !950
  store i8 %6, i8* %8, align 8, !dbg !950
  %9 = getelementptr inbounds { i64, i8 }, { i64, i8 }* %1, i32 0, i32 0, !dbg !950
  %_13.0 = load i64, i64* %9, align 8, !dbg !950
  %10 = getelementptr inbounds { i64, i8 }, { i64, i8 }* %1, i32 0, i32 1, !dbg !950
  %11 = load i8, i8* %10, align 8, !dbg !950, !range !582, !noundef !23
  %_13.1 = trunc i8 %11 to i1, !dbg !950
  br label %bb5, !dbg !950

bb5:                                              ; preds = %start
  store i64 %_13.0, i64* %a.dbg.spill, align 8, !dbg !950
  call void @llvm.dbg.declare(metadata i64* %a.dbg.spill, metadata !947, metadata !DIExpression()), !dbg !952
  %12 = zext i1 %_13.1 to i8, !dbg !950
  store i8 %12, i8* %b.dbg.spill, align 1, !dbg !950
  call void @llvm.dbg.declare(metadata i8* %b.dbg.spill, metadata !949, metadata !DIExpression()), !dbg !952
  %13 = bitcast { i64, i8 }* %_5 to i64*, !dbg !952
  store i64 %_13.0, i64* %13, align 8, !dbg !952
  %14 = getelementptr inbounds { i64, i8 }, { i64, i8 }* %_5, i32 0, i32 1, !dbg !952
  %15 = zext i1 %_13.1 to i8, !dbg !952
  store i8 %15, i8* %14, align 8, !dbg !952
  %16 = bitcast { i64, i8 }* %_5 to i64*, !dbg !953
  %a = load i64, i64* %16, align 8, !dbg !953
  store i64 %a, i64* %a.dbg.spill3, align 8, !dbg !953
  call void @llvm.dbg.declare(metadata i64* %a.dbg.spill3, metadata !937, metadata !DIExpression()), !dbg !954
  %17 = getelementptr inbounds { i64, i8 }, { i64, i8 }* %_5, i32 0, i32 1, !dbg !955
  %18 = load i8, i8* %17, align 8, !dbg !955, !range !582, !noundef !23
  %b = trunc i8 %18 to i1, !dbg !955
  %19 = zext i1 %b to i8, !dbg !955
  store i8 %19, i8* %b.dbg.spill4, align 1, !dbg !955
  call void @llvm.dbg.declare(metadata i8* %b.dbg.spill4, metadata !939, metadata !DIExpression()), !dbg !956
  %20 = call i1 @llvm.expect.i1(i1 %b, i1 false), !dbg !957
  %21 = zext i1 %20 to i8, !dbg !957
  store i8 %21, i8* %0, align 1, !dbg !957
  %22 = load i8, i8* %0, align 1, !dbg !957, !range !582, !noundef !23
  %_8 = trunc i8 %22 to i1, !dbg !957
  br label %bb1, !dbg !957

bb1:                                              ; preds = %bb5
  br i1 %_8, label %bb2, label %bb3, !dbg !957

bb3:                                              ; preds = %bb1
  %23 = getelementptr inbounds { i64, i64 }, { i64, i64 }* %2, i32 0, i32 1, !dbg !958
  store i64 %a, i64* %23, align 8, !dbg !958
  %24 = bitcast { i64, i64 }* %2 to i64*, !dbg !958
  store i64 1, i64* %24, align 8, !dbg !958
  br label %bb4, !dbg !959

bb2:                                              ; preds = %bb1
  %25 = bitcast { i64, i64 }* %2 to i64*, !dbg !960
  store i64 0, i64* %25, align 8, !dbg !960
  br label %bb4, !dbg !959

bb4:                                              ; preds = %bb3, %bb2
  %26 = getelementptr inbounds { i64, i64 }, { i64, i64 }* %2, i32 0, i32 0, !dbg !961
  %27 = load i64, i64* %26, align 8, !dbg !961, !range !932, !noundef !23
  %28 = getelementptr inbounds { i64, i64 }, { i64, i64 }* %2, i32 0, i32 1, !dbg !961
  %29 = load i64, i64* %28, align 8, !dbg !961
  %30 = insertvalue { i64, i64 } undef, i64 %27, 0, !dbg !961
  %31 = insertvalue { i64, i64 } %30, i64 %29, 1, !dbg !961
  ret { i64, i64 } %31, !dbg !961
}

; core::ops::function::FnOnce::call_once{{vtable.shim}}
; Function Attrs: inlinehint nonlazybind uwtable
define internal i32 @"_ZN4core3ops8function6FnOnce40call_once$u7b$$u7b$vtable.shim$u7d$$u7d$17h9b0e5466779f4103E"(i64** %_1) unnamed_addr #0 !dbg !962 {
start:
  %_1.dbg.spill = alloca i64**, align 8
  %_2 = alloca {}, align 1
  store i64** %_1, i64*** %_1.dbg.spill, align 8
  call void @llvm.dbg.declare(metadata i64*** %_1.dbg.spill, metadata !971, metadata !DIExpression()), !dbg !976
  call void @llvm.dbg.declare(metadata {}* %_2, metadata !972, metadata !DIExpression()), !dbg !976
  %0 = load i64*, i64** %_1, align 8, !dbg !976, !nonnull !23, !noundef !23
; call core::ops::function::FnOnce::call_once
  %1 = call i32 @_ZN4core3ops8function6FnOnce9call_once17hd34dde841114cb1fE(i64* %0), !dbg !976
  br label %bb1, !dbg !976

bb1:                                              ; preds = %start
  ret i32 %1, !dbg !976
}

; core::ops::function::FnOnce::call_once
; Function Attrs: inlinehint nonlazybind uwtable
define internal void @_ZN4core3ops8function6FnOnce9call_once17h08e82f09d96cd0c3E() unnamed_addr #0 personality i32 (i32, i32, i64, %"unwind::libunwind::_Unwind_Exception"*, %"unwind::libunwind::_Unwind_Context"*)* @rust_eh_personality !dbg !977 {
start:
  %0 = alloca { i8*, i32 }, align 8
  %_2 = alloca {}, align 1
  %_1 = alloca %"[closure@src/test_arrays.rs:45:1: 63:2]", align 1
  call void @llvm.dbg.declare(metadata %"[closure@src/test_arrays.rs:45:1: 63:2]"* %_1, metadata !983, metadata !DIExpression()), !dbg !987
  call void @llvm.dbg.declare(metadata {}* %_2, metadata !984, metadata !DIExpression()), !dbg !987
; invoke array_tests::test_arrays::test_buffer::{{closure}}
  invoke void @"_ZN11array_tests11test_arrays11test_buffer28_$u7b$$u7b$closure$u7d$$u7d$17hac85ceb01446f1c5E"(%"[closure@src/test_arrays.rs:45:1: 63:2]"* align 1 %_1)
          to label %bb1 unwind label %cleanup, !dbg !987

bb3:                                              ; preds = %cleanup
  br label %bb4, !dbg !987

cleanup:                                          ; preds = %start
  %1 = landingpad { i8*, i32 }
          cleanup
  %2 = extractvalue { i8*, i32 } %1, 0
  %3 = extractvalue { i8*, i32 } %1, 1
  %4 = getelementptr inbounds { i8*, i32 }, { i8*, i32 }* %0, i32 0, i32 0
  store i8* %2, i8** %4, align 8
  %5 = getelementptr inbounds { i8*, i32 }, { i8*, i32 }* %0, i32 0, i32 1
  store i32 %3, i32* %5, align 8
  br label %bb3

bb1:                                              ; preds = %start
  br label %bb2, !dbg !987

bb4:                                              ; preds = %bb3
  %6 = bitcast { i8*, i32 }* %0 to i8**, !dbg !987
  %7 = load i8*, i8** %6, align 8, !dbg !987
  %8 = getelementptr inbounds { i8*, i32 }, { i8*, i32 }* %0, i32 0, i32 1, !dbg !987
  %9 = load i32, i32* %8, align 8, !dbg !987
  %10 = insertvalue { i8*, i32 } undef, i8* %7, 0, !dbg !987
  %11 = insertvalue { i8*, i32 } %10, i32 %9, 1, !dbg !987
  resume { i8*, i32 } %11, !dbg !987

bb2:                                              ; preds = %bb1
  ret void, !dbg !987
}

; core::ops::function::FnOnce::call_once
; Function Attrs: inlinehint nonlazybind uwtable
define internal void @_ZN4core3ops8function6FnOnce9call_once17h164bb907954cf641E() unnamed_addr #0 personality i32 (i32, i32, i64, %"unwind::libunwind::_Unwind_Exception"*, %"unwind::libunwind::_Unwind_Context"*)* @rust_eh_personality !dbg !988 {
start:
  %0 = alloca { i8*, i32 }, align 8
  %_2 = alloca {}, align 1
  %_1 = alloca %"[closure@src/test_arrays.rs:31:1: 35:2]", align 1
  call void @llvm.dbg.declare(metadata %"[closure@src/test_arrays.rs:31:1: 35:2]"* %_1, metadata !994, metadata !DIExpression()), !dbg !998
  call void @llvm.dbg.declare(metadata {}* %_2, metadata !995, metadata !DIExpression()), !dbg !998
; invoke array_tests::test_arrays::test_sized_array_impls::{{closure}}
  invoke void @"_ZN11array_tests11test_arrays22test_sized_array_impls28_$u7b$$u7b$closure$u7d$$u7d$17h6b18364a9b840387E"(%"[closure@src/test_arrays.rs:31:1: 35:2]"* align 1 %_1)
          to label %bb1 unwind label %cleanup, !dbg !998

bb3:                                              ; preds = %cleanup
  br label %bb4, !dbg !998

cleanup:                                          ; preds = %start
  %1 = landingpad { i8*, i32 }
          cleanup
  %2 = extractvalue { i8*, i32 } %1, 0
  %3 = extractvalue { i8*, i32 } %1, 1
  %4 = getelementptr inbounds { i8*, i32 }, { i8*, i32 }* %0, i32 0, i32 0
  store i8* %2, i8** %4, align 8
  %5 = getelementptr inbounds { i8*, i32 }, { i8*, i32 }* %0, i32 0, i32 1
  store i32 %3, i32* %5, align 8
  br label %bb3

bb1:                                              ; preds = %start
  br label %bb2, !dbg !998

bb4:                                              ; preds = %bb3
  %6 = bitcast { i8*, i32 }* %0 to i8**, !dbg !998
  %7 = load i8*, i8** %6, align 8, !dbg !998
  %8 = getelementptr inbounds { i8*, i32 }, { i8*, i32 }* %0, i32 0, i32 1, !dbg !998
  %9 = load i32, i32* %8, align 8, !dbg !998
  %10 = insertvalue { i8*, i32 } undef, i8* %7, 0, !dbg !998
  %11 = insertvalue { i8*, i32 } %10, i32 %9, 1, !dbg !998
  resume { i8*, i32 } %11, !dbg !998

bb2:                                              ; preds = %bb1
  ret void, !dbg !998
}

; core::ops::function::FnOnce::call_once
; Function Attrs: inlinehint nonlazybind uwtable
define internal void @_ZN4core3ops8function6FnOnce9call_once17h5854d64ef78d1e60E() unnamed_addr #0 personality i32 (i32, i32, i64, %"unwind::libunwind::_Unwind_Exception"*, %"unwind::libunwind::_Unwind_Context"*)* @rust_eh_personality !dbg !999 {
start:
  %0 = alloca { i8*, i32 }, align 8
  %_2 = alloca {}, align 1
  %_1 = alloca %"[closure@src/test_arrays.rs:66:1: 78:2]", align 1
  call void @llvm.dbg.declare(metadata %"[closure@src/test_arrays.rs:66:1: 78:2]"* %_1, metadata !1005, metadata !DIExpression()), !dbg !1009
  call void @llvm.dbg.declare(metadata {}* %_2, metadata !1006, metadata !DIExpression()), !dbg !1009
; invoke array_tests::test_arrays::test_buffer2::{{closure}}
  invoke void @"_ZN11array_tests11test_arrays12test_buffer228_$u7b$$u7b$closure$u7d$$u7d$17he1c17185810d04e8E"(%"[closure@src/test_arrays.rs:66:1: 78:2]"* align 1 %_1)
          to label %bb1 unwind label %cleanup, !dbg !1009

bb3:                                              ; preds = %cleanup
  br label %bb4, !dbg !1009

cleanup:                                          ; preds = %start
  %1 = landingpad { i8*, i32 }
          cleanup
  %2 = extractvalue { i8*, i32 } %1, 0
  %3 = extractvalue { i8*, i32 } %1, 1
  %4 = getelementptr inbounds { i8*, i32 }, { i8*, i32 }* %0, i32 0, i32 0
  store i8* %2, i8** %4, align 8
  %5 = getelementptr inbounds { i8*, i32 }, { i8*, i32 }* %0, i32 0, i32 1
  store i32 %3, i32* %5, align 8
  br label %bb3

bb1:                                              ; preds = %start
  br label %bb2, !dbg !1009

bb4:                                              ; preds = %bb3
  %6 = bitcast { i8*, i32 }* %0 to i8**, !dbg !1009
  %7 = load i8*, i8** %6, align 8, !dbg !1009
  %8 = getelementptr inbounds { i8*, i32 }, { i8*, i32 }* %0, i32 0, i32 1, !dbg !1009
  %9 = load i32, i32* %8, align 8, !dbg !1009
  %10 = insertvalue { i8*, i32 } undef, i8* %7, 0, !dbg !1009
  %11 = insertvalue { i8*, i32 } %10, i32 %9, 1, !dbg !1009
  resume { i8*, i32 } %11, !dbg !1009

bb2:                                              ; preds = %bb1
  ret void, !dbg !1009
}

; core::ops::function::FnOnce::call_once
; Function Attrs: inlinehint nonlazybind uwtable
define internal void @_ZN4core3ops8function6FnOnce9call_once17h8ef4047210f3fd1aE(void ()* %_1) unnamed_addr #0 !dbg !1010 {
start:
  %_1.dbg.spill = alloca void ()*, align 8
  %_2 = alloca {}, align 1
  store void ()* %_1, void ()** %_1.dbg.spill, align 8
  call void @llvm.dbg.declare(metadata void ()** %_1.dbg.spill, metadata !1012, metadata !DIExpression()), !dbg !1016
  call void @llvm.dbg.declare(metadata {}* %_2, metadata !1013, metadata !DIExpression()), !dbg !1016
  call void %_1(), !dbg !1016
  br label %bb1, !dbg !1016

bb1:                                              ; preds = %start
  ret void, !dbg !1016
}

; core::ops::function::FnOnce::call_once
; Function Attrs: inlinehint nonlazybind uwtable
define internal void @_ZN4core3ops8function6FnOnce9call_once17hb61f48e33c63604dE() unnamed_addr #0 personality i32 (i32, i32, i64, %"unwind::libunwind::_Unwind_Exception"*, %"unwind::libunwind::_Unwind_Context"*)* @rust_eh_personality !dbg !1017 {
start:
  %0 = alloca { i8*, i32 }, align 8
  %_2 = alloca {}, align 1
  %_1 = alloca %"[closure@src/test_arrays.rs:38:1: 42:2]", align 1
  call void @llvm.dbg.declare(metadata %"[closure@src/test_arrays.rs:38:1: 42:2]"* %_1, metadata !1023, metadata !DIExpression()), !dbg !1027
  call void @llvm.dbg.declare(metadata {}* %_2, metadata !1024, metadata !DIExpression()), !dbg !1027
; invoke array_tests::test_arrays::test_global_incomplete_array::{{closure}}
  invoke void @"_ZN11array_tests11test_arrays28test_global_incomplete_array28_$u7b$$u7b$closure$u7d$$u7d$17h7f805434574bb4ecE"(%"[closure@src/test_arrays.rs:38:1: 42:2]"* align 1 %_1)
          to label %bb1 unwind label %cleanup, !dbg !1027

bb3:                                              ; preds = %cleanup
  br label %bb4, !dbg !1027

cleanup:                                          ; preds = %start
  %1 = landingpad { i8*, i32 }
          cleanup
  %2 = extractvalue { i8*, i32 } %1, 0
  %3 = extractvalue { i8*, i32 } %1, 1
  %4 = getelementptr inbounds { i8*, i32 }, { i8*, i32 }* %0, i32 0, i32 0
  store i8* %2, i8** %4, align 8
  %5 = getelementptr inbounds { i8*, i32 }, { i8*, i32 }* %0, i32 0, i32 1
  store i32 %3, i32* %5, align 8
  br label %bb3

bb1:                                              ; preds = %start
  br label %bb2, !dbg !1027

bb4:                                              ; preds = %bb3
  %6 = bitcast { i8*, i32 }* %0 to i8**, !dbg !1027
  %7 = load i8*, i8** %6, align 8, !dbg !1027
  %8 = getelementptr inbounds { i8*, i32 }, { i8*, i32 }* %0, i32 0, i32 1, !dbg !1027
  %9 = load i32, i32* %8, align 8, !dbg !1027
  %10 = insertvalue { i8*, i32 } undef, i8* %7, 0, !dbg !1027
  %11 = insertvalue { i8*, i32 } %10, i32 %9, 1, !dbg !1027
  resume { i8*, i32 } %11, !dbg !1027

bb2:                                              ; preds = %bb1
  ret void, !dbg !1027
}

; core::ops::function::FnOnce::call_once
; Function Attrs: inlinehint nonlazybind uwtable
define internal i32 @_ZN4core3ops8function6FnOnce9call_once17hd34dde841114cb1fE(i64* %0) unnamed_addr #0 personality i32 (i32, i32, i64, %"unwind::libunwind::_Unwind_Exception"*, %"unwind::libunwind::_Unwind_Context"*)* @rust_eh_personality !dbg !1028 {
start:
  %1 = alloca { i8*, i32 }, align 8
  %_2 = alloca {}, align 1
  %_1 = alloca i64*, align 8
  store i64* %0, i64** %_1, align 8
  call void @llvm.dbg.declare(metadata i64** %_1, metadata !1032, metadata !DIExpression()), !dbg !1034
  call void @llvm.dbg.declare(metadata {}* %_2, metadata !1033, metadata !DIExpression()), !dbg !1034
; invoke std::rt::lang_start::{{closure}}
  %2 = invoke i32 @"_ZN3std2rt10lang_start28_$u7b$$u7b$closure$u7d$$u7d$17h1dbdd53c3505487dE"(i64** align 8 %_1)
          to label %bb1 unwind label %cleanup, !dbg !1034

bb3:                                              ; preds = %cleanup
  br label %bb4, !dbg !1034

cleanup:                                          ; preds = %start
  %3 = landingpad { i8*, i32 }
          cleanup
  %4 = extractvalue { i8*, i32 } %3, 0
  %5 = extractvalue { i8*, i32 } %3, 1
  %6 = getelementptr inbounds { i8*, i32 }, { i8*, i32 }* %1, i32 0, i32 0
  store i8* %4, i8** %6, align 8
  %7 = getelementptr inbounds { i8*, i32 }, { i8*, i32 }* %1, i32 0, i32 1
  store i32 %5, i32* %7, align 8
  br label %bb3

bb1:                                              ; preds = %start
  br label %bb2, !dbg !1034

bb4:                                              ; preds = %bb3
  %8 = bitcast { i8*, i32 }* %1 to i8**, !dbg !1034
  %9 = load i8*, i8** %8, align 8, !dbg !1034
  %10 = getelementptr inbounds { i8*, i32 }, { i8*, i32 }* %1, i32 0, i32 1, !dbg !1034
  %11 = load i32, i32* %10, align 8, !dbg !1034
  %12 = insertvalue { i8*, i32 } undef, i8* %9, 0, !dbg !1034
  %13 = insertvalue { i8*, i32 } %12, i32 %11, 1, !dbg !1034
  resume { i8*, i32 } %13, !dbg !1034

bb2:                                              ; preds = %bb1
  ret i32 %2, !dbg !1034
}

; core::ops::function::FnOnce::call_once
; Function Attrs: inlinehint nonlazybind uwtable
define internal void @_ZN4core3ops8function6FnOnce9call_once17hdda276033a1f8518E() unnamed_addr #0 personality i32 (i32, i32, i64, %"unwind::libunwind::_Unwind_Exception"*, %"unwind::libunwind::_Unwind_Context"*)* @rust_eh_personality !dbg !1035 {
start:
  %0 = alloca { i8*, i32 }, align 8
  %_2 = alloca {}, align 1
  %_1 = alloca %"[closure@src/test_arrays.rs:81:1: 99:2]", align 1
  call void @llvm.dbg.declare(metadata %"[closure@src/test_arrays.rs:81:1: 99:2]"* %_1, metadata !1041, metadata !DIExpression()), !dbg !1045
  call void @llvm.dbg.declare(metadata {}* %_2, metadata !1042, metadata !DIExpression()), !dbg !1045
; invoke array_tests::test_arrays::test_variable_arrays::{{closure}}
  invoke void @"_ZN11array_tests11test_arrays20test_variable_arrays28_$u7b$$u7b$closure$u7d$$u7d$17h36e6b28ca8e568caE"(%"[closure@src/test_arrays.rs:81:1: 99:2]"* align 1 %_1)
          to label %bb1 unwind label %cleanup, !dbg !1045

bb3:                                              ; preds = %cleanup
  br label %bb4, !dbg !1045

cleanup:                                          ; preds = %start
  %1 = landingpad { i8*, i32 }
          cleanup
  %2 = extractvalue { i8*, i32 } %1, 0
  %3 = extractvalue { i8*, i32 } %1, 1
  %4 = getelementptr inbounds { i8*, i32 }, { i8*, i32 }* %0, i32 0, i32 0
  store i8* %2, i8** %4, align 8
  %5 = getelementptr inbounds { i8*, i32 }, { i8*, i32 }* %0, i32 0, i32 1
  store i32 %3, i32* %5, align 8
  br label %bb3

bb1:                                              ; preds = %start
  br label %bb2, !dbg !1045

bb4:                                              ; preds = %bb3
  %6 = bitcast { i8*, i32 }* %0 to i8**, !dbg !1045
  %7 = load i8*, i8** %6, align 8, !dbg !1045
  %8 = getelementptr inbounds { i8*, i32 }, { i8*, i32 }* %0, i32 0, i32 1, !dbg !1045
  %9 = load i32, i32* %8, align 8, !dbg !1045
  %10 = insertvalue { i8*, i32 } undef, i8* %7, 0, !dbg !1045
  %11 = insertvalue { i8*, i32 } %10, i32 %9, 1, !dbg !1045
  resume { i8*, i32 } %11, !dbg !1045

bb2:                                              ; preds = %bb1
  ret void, !dbg !1045
}

; core::ops::function::FnOnce::call_once
; Function Attrs: inlinehint nonlazybind uwtable
define internal void @_ZN4core3ops8function6FnOnce9call_once17heffa5958092a6e7dE() unnamed_addr #0 personality i32 (i32, i32, i64, %"unwind::libunwind::_Unwind_Exception"*, %"unwind::libunwind::_Unwind_Context"*)* @rust_eh_personality !dbg !1046 {
start:
  %0 = alloca { i8*, i32 }, align 8
  %_2 = alloca {}, align 1
  %_1 = alloca %"[closure@src/test_arrays.rs:102:1: 120:2]", align 1
  call void @llvm.dbg.declare(metadata %"[closure@src/test_arrays.rs:102:1: 120:2]"* %_1, metadata !1052, metadata !DIExpression()), !dbg !1056
  call void @llvm.dbg.declare(metadata {}* %_2, metadata !1053, metadata !DIExpression()), !dbg !1056
; invoke array_tests::test_arrays::test_alloca_arrays::{{closure}}
  invoke void @"_ZN11array_tests11test_arrays18test_alloca_arrays28_$u7b$$u7b$closure$u7d$$u7d$17h4849e9a2f935d764E"(%"[closure@src/test_arrays.rs:102:1: 120:2]"* align 1 %_1)
          to label %bb1 unwind label %cleanup, !dbg !1056

bb3:                                              ; preds = %cleanup
  br label %bb4, !dbg !1056

cleanup:                                          ; preds = %start
  %1 = landingpad { i8*, i32 }
          cleanup
  %2 = extractvalue { i8*, i32 } %1, 0
  %3 = extractvalue { i8*, i32 } %1, 1
  %4 = getelementptr inbounds { i8*, i32 }, { i8*, i32 }* %0, i32 0, i32 0
  store i8* %2, i8** %4, align 8
  %5 = getelementptr inbounds { i8*, i32 }, { i8*, i32 }* %0, i32 0, i32 1
  store i32 %3, i32* %5, align 8
  br label %bb3

bb1:                                              ; preds = %start
  br label %bb2, !dbg !1056

bb4:                                              ; preds = %bb3
  %6 = bitcast { i8*, i32 }* %0 to i8**, !dbg !1056
  %7 = load i8*, i8** %6, align 8, !dbg !1056
  %8 = getelementptr inbounds { i8*, i32 }, { i8*, i32 }* %0, i32 0, i32 1, !dbg !1056
  %9 = load i32, i32* %8, align 8, !dbg !1056
  %10 = insertvalue { i8*, i32 } undef, i8* %7, 0, !dbg !1056
  %11 = insertvalue { i8*, i32 } %10, i32 %9, 1, !dbg !1056
  resume { i8*, i32 } %11, !dbg !1056

bb2:                                              ; preds = %bb1
  ret void, !dbg !1056
}

; core::ptr::drop_in_place<&i32>
; Function Attrs: inlinehint nonlazybind uwtable
define internal void @"_ZN4core3ptr28drop_in_place$LT$$RF$i32$GT$17h2e40cf13126c2945E"(i32** %_1) unnamed_addr #0 !dbg !1057 {
start:
  %_1.dbg.spill = alloca i32**, align 8
  store i32** %_1, i32*** %_1.dbg.spill, align 8
  call void @llvm.dbg.declare(metadata i32*** %_1.dbg.spill, metadata !1062, metadata !DIExpression()), !dbg !1063
  ret void, !dbg !1063
}

; core::ptr::drop_in_place<&u32>
; Function Attrs: inlinehint nonlazybind uwtable
define internal void @"_ZN4core3ptr28drop_in_place$LT$$RF$u32$GT$17h6bea87460d2c111dE"(i32** %_1) unnamed_addr #0 !dbg !1064 {
start:
  %_1.dbg.spill = alloca i32**, align 8
  store i32** %_1, i32*** %_1.dbg.spill, align 8
  call void @llvm.dbg.declare(metadata i32*** %_1.dbg.spill, metadata !1069, metadata !DIExpression()), !dbg !1072
  ret void, !dbg !1072
}

; core::ptr::drop_in_place<&bool>
; Function Attrs: inlinehint nonlazybind uwtable
define internal void @"_ZN4core3ptr29drop_in_place$LT$$RF$bool$GT$17h049972998a46580cE"(i8** %_1) unnamed_addr #0 !dbg !1073 {
start:
  %_1.dbg.spill = alloca i8**, align 8
  store i8** %_1, i8*** %_1.dbg.spill, align 8
  call void @llvm.dbg.declare(metadata i8*** %_1.dbg.spill, metadata !1078, metadata !DIExpression()), !dbg !1081
  ret void, !dbg !1081
}

; core::ptr::drop_in_place<alloc::vec::Vec<i32>>
; Function Attrs: nonlazybind uwtable
define internal void @"_ZN4core3ptr47drop_in_place$LT$alloc..vec..Vec$LT$i32$GT$$GT$17h035ad200dd80b9a9E"(%"alloc::vec::Vec<i32>"* %_1) unnamed_addr #2 personality i32 (i32, i32, i64, %"unwind::libunwind::_Unwind_Exception"*, %"unwind::libunwind::_Unwind_Context"*)* @rust_eh_personality !dbg !1082 {
start:
  %0 = alloca { i8*, i32 }, align 8
  %_1.dbg.spill = alloca %"alloc::vec::Vec<i32>"*, align 8
  store %"alloc::vec::Vec<i32>"* %_1, %"alloc::vec::Vec<i32>"** %_1.dbg.spill, align 8
  call void @llvm.dbg.declare(metadata %"alloc::vec::Vec<i32>"** %_1.dbg.spill, metadata !1106, metadata !DIExpression()), !dbg !1109
; invoke <alloc::vec::Vec<T,A> as core::ops::drop::Drop>::drop
  invoke void @"_ZN70_$LT$alloc..vec..Vec$LT$T$C$A$GT$$u20$as$u20$core..ops..drop..Drop$GT$4drop17h70905a73bf71b336E"(%"alloc::vec::Vec<i32>"* align 8 %_1)
          to label %bb4 unwind label %cleanup, !dbg !1109

bb3:                                              ; preds = %cleanup
  %1 = bitcast %"alloc::vec::Vec<i32>"* %_1 to { i32*, i64 }*, !dbg !1109
; invoke core::ptr::drop_in_place<alloc::raw_vec::RawVec<i32>>
  invoke void @"_ZN4core3ptr54drop_in_place$LT$alloc..raw_vec..RawVec$LT$i32$GT$$GT$17he1e32f1b987f78a7E"({ i32*, i64 }* %1) #16
          to label %bb1 unwind label %abort, !dbg !1109

cleanup:                                          ; preds = %start
  %2 = landingpad { i8*, i32 }
          cleanup
  %3 = extractvalue { i8*, i32 } %2, 0
  %4 = extractvalue { i8*, i32 } %2, 1
  %5 = getelementptr inbounds { i8*, i32 }, { i8*, i32 }* %0, i32 0, i32 0
  store i8* %3, i8** %5, align 8
  %6 = getelementptr inbounds { i8*, i32 }, { i8*, i32 }* %0, i32 0, i32 1
  store i32 %4, i32* %6, align 8
  br label %bb3

bb4:                                              ; preds = %start
  %7 = bitcast %"alloc::vec::Vec<i32>"* %_1 to { i32*, i64 }*, !dbg !1109
; call core::ptr::drop_in_place<alloc::raw_vec::RawVec<i32>>
  call void @"_ZN4core3ptr54drop_in_place$LT$alloc..raw_vec..RawVec$LT$i32$GT$$GT$17he1e32f1b987f78a7E"({ i32*, i64 }* %7), !dbg !1109
  br label %bb2, !dbg !1109

abort:                                            ; preds = %bb3
  %8 = landingpad { i8*, i32 }
          cleanup, !dbg !1109
; call core::panicking::panic_no_unwind
  call void @_ZN4core9panicking15panic_no_unwind17h62f8113f44cbfcbfE() #17, !dbg !1109
  unreachable, !dbg !1109

bb1:                                              ; preds = %bb3
  %9 = bitcast { i8*, i32 }* %0 to i8**, !dbg !1109
  %10 = load i8*, i8** %9, align 8, !dbg !1109
  %11 = getelementptr inbounds { i8*, i32 }, { i8*, i32 }* %0, i32 0, i32 1, !dbg !1109
  %12 = load i32, i32* %11, align 8, !dbg !1109
  %13 = insertvalue { i8*, i32 } undef, i8* %10, 0, !dbg !1109
  %14 = insertvalue { i8*, i32 } %13, i32 %12, 1, !dbg !1109
  resume { i8*, i32 } %14, !dbg !1109

bb2:                                              ; preds = %bb4
  ret void, !dbg !1109
}

; core::ptr::drop_in_place<&[i32; 2]>
; Function Attrs: inlinehint nonlazybind uwtable
define internal void @"_ZN4core3ptr49drop_in_place$LT$$RF$$u5b$i32$u3b$$u20$2$u5d$$GT$17hdf2d5ba04d5e48c9E"([2 x i32]** %_1) unnamed_addr #0 !dbg !1110 {
start:
  %_1.dbg.spill = alloca [2 x i32]**, align 8
  store [2 x i32]** %_1, [2 x i32]*** %_1.dbg.spill, align 8
  call void @llvm.dbg.declare(metadata [2 x i32]*** %_1.dbg.spill, metadata !1115, metadata !DIExpression()), !dbg !1118
  ret void, !dbg !1118
}

; core::ptr::drop_in_place<alloc::raw_vec::RawVec<i32>>
; Function Attrs: nonlazybind uwtable
define internal void @"_ZN4core3ptr54drop_in_place$LT$alloc..raw_vec..RawVec$LT$i32$GT$$GT$17he1e32f1b987f78a7E"({ i32*, i64 }* %_1) unnamed_addr #2 !dbg !1119 {
start:
  %_1.dbg.spill = alloca { i32*, i64 }*, align 8
  store { i32*, i64 }* %_1, { i32*, i64 }** %_1.dbg.spill, align 8
  call void @llvm.dbg.declare(metadata { i32*, i64 }** %_1.dbg.spill, metadata !1124, metadata !DIExpression()), !dbg !1127
; call <alloc::raw_vec::RawVec<T,A> as core::ops::drop::Drop>::drop
  call void @"_ZN77_$LT$alloc..raw_vec..RawVec$LT$T$C$A$GT$$u20$as$u20$core..ops..drop..Drop$GT$4drop17hb421582263d5d1b2E"({ i32*, i64 }* align 8 %_1), !dbg !1127
  br label %bb1, !dbg !1127

bb1:                                              ; preds = %start
  ret void, !dbg !1127
}

; core::ptr::drop_in_place<alloc::vec::set_len_on_drop::SetLenOnDrop>
; Function Attrs: nonlazybind uwtable
define internal void @"_ZN4core3ptr62drop_in_place$LT$alloc..vec..set_len_on_drop..SetLenOnDrop$GT$17h0df015e9a232d0deE"({ i64*, i64 }* %_1) unnamed_addr #2 !dbg !1128 {
start:
  %_1.dbg.spill = alloca { i64*, i64 }*, align 8
  store { i64*, i64 }* %_1, { i64*, i64 }** %_1.dbg.spill, align 8
  call void @llvm.dbg.declare(metadata { i64*, i64 }** %_1.dbg.spill, metadata !1138, metadata !DIExpression()), !dbg !1141
; call <alloc::vec::set_len_on_drop::SetLenOnDrop as core::ops::drop::Drop>::drop
  call void @"_ZN83_$LT$alloc..vec..set_len_on_drop..SetLenOnDrop$u20$as$u20$core..ops..drop..Drop$GT$4drop17h5f4f1e79ad2e8108E"({ i64*, i64 }* align 8 %_1), !dbg !1141
  br label %bb1, !dbg !1141

bb1:                                              ; preds = %start
  ret void, !dbg !1141
}

; core::ptr::drop_in_place<std::rt::lang_start<()>::{{closure}}>
; Function Attrs: inlinehint nonlazybind uwtable
define internal void @"_ZN4core3ptr85drop_in_place$LT$std..rt..lang_start$LT$$LP$$RP$$GT$..$u7b$$u7b$closure$u7d$$u7d$$GT$17h3168fd86cd542110E"(i64** %_1) unnamed_addr #0 !dbg !1142 {
start:
  %_1.dbg.spill = alloca i64**, align 8
  store i64** %_1, i64*** %_1.dbg.spill, align 8
  call void @llvm.dbg.declare(metadata i64*** %_1.dbg.spill, metadata !1146, metadata !DIExpression()), !dbg !1149
  ret void, !dbg !1149
}

; core::ptr::non_null::NonNull<T>::new
; Function Attrs: inlinehint nonlazybind uwtable
define internal i8* @"_ZN4core3ptr8non_null16NonNull$LT$T$GT$3new17he9f80aa4e18ed60cE"(i8* %ptr) unnamed_addr #0 !dbg !1150 {
start:
  %ptr.dbg.spill2 = alloca i8*, align 8
  %0 = alloca i8, align 1
  %other.dbg.spill = alloca i8*, align 8
  %data_address.dbg.spill = alloca {}*, align 8
  %1 = alloca {}*, align 8
  %self.dbg.spill1 = alloca i8*, align 8
  %self.dbg.spill = alloca i8*, align 8
  %metadata.dbg.spill = alloca {}, align 1
  %ptr.dbg.spill = alloca i8*, align 8
  %_15 = alloca %"core::ptr::metadata::PtrComponents<u8>", align 8
  %_14 = alloca %"core::ptr::metadata::PtrRepr<u8>", align 8
  %_5 = alloca i8*, align 8
  %2 = alloca i8*, align 8
  store i8* %ptr, i8** %ptr.dbg.spill, align 8
  call void @llvm.dbg.declare(metadata i8** %ptr.dbg.spill, metadata !1167, metadata !DIExpression()), !dbg !1168
  call void @llvm.dbg.declare(metadata {}* %metadata.dbg.spill, metadata !1169, metadata !DIExpression()), !dbg !1179
  store i8* %ptr, i8** %self.dbg.spill, align 8, !dbg !1194
  call void @llvm.dbg.declare(metadata i8** %self.dbg.spill, metadata !1192, metadata !DIExpression()), !dbg !1195
  store i8* %ptr, i8** %self.dbg.spill1, align 8, !dbg !1195
  call void @llvm.dbg.declare(metadata i8** %self.dbg.spill1, metadata !1196, metadata !DIExpression()), !dbg !1203
  %3 = bitcast {}** %1 to i64*, !dbg !1205
  store i64 0, i64* %3, align 8, !dbg !1205
  %data_address = load {}*, {}** %1, align 8, !dbg !1205
  store {}* %data_address, {}** %data_address.dbg.spill, align 8, !dbg !1205
  call void @llvm.dbg.declare(metadata {}** %data_address.dbg.spill, metadata !1178, metadata !DIExpression()), !dbg !1179
  br label %bb4, !dbg !1205

bb4:                                              ; preds = %start
  %4 = bitcast %"core::ptr::metadata::PtrComponents<u8>"* %_15 to {}**, !dbg !1179
  store {}* %data_address, {}** %4, align 8, !dbg !1179
  %5 = bitcast %"core::ptr::metadata::PtrRepr<u8>"* %_14 to %"core::ptr::metadata::PtrComponents<u8>"*, !dbg !1179
  %6 = bitcast %"core::ptr::metadata::PtrComponents<u8>"* %5 to i8*, !dbg !1179
  %7 = bitcast %"core::ptr::metadata::PtrComponents<u8>"* %_15 to i8*, !dbg !1179
  call void @llvm.memcpy.p0i8.p0i8.i64(i8* align 8 %6, i8* align 8 %7, i64 8, i1 false), !dbg !1179
  %8 = bitcast %"core::ptr::metadata::PtrRepr<u8>"* %_14 to i8**, !dbg !1179
  %other = load i8*, i8** %8, align 8, !dbg !1179
  store i8* %other, i8** %other.dbg.spill, align 8, !dbg !1179
  call void @llvm.dbg.declare(metadata i8** %other.dbg.spill, metadata !1202, metadata !DIExpression()), !dbg !1203
  %9 = icmp eq i8* %ptr, %other, !dbg !1203
  %10 = zext i1 %9 to i8, !dbg !1203
  store i8 %10, i8* %0, align 1, !dbg !1203
  %11 = load i8, i8* %0, align 1, !dbg !1203, !range !582, !noundef !23
  %_3 = trunc i8 %11 to i1, !dbg !1203
  br label %bb5, !dbg !1203

bb5:                                              ; preds = %bb4
  %_2 = xor i1 %_3, true, !dbg !1213
  br i1 %_2, label %bb1, label %bb2, !dbg !1213

bb2:                                              ; preds = %bb5
  %12 = bitcast i8** %2 to {}**, !dbg !1214
  store {}* null, {}** %12, align 8, !dbg !1214
  br label %bb3, !dbg !1215

bb1:                                              ; preds = %bb5
  store i8* %ptr, i8** %ptr.dbg.spill2, align 8, !dbg !1216
  call void @llvm.dbg.declare(metadata i8** %ptr.dbg.spill2, metadata !1217, metadata !DIExpression()), !dbg !1220
  store i8* %ptr, i8** %_5, align 8, !dbg !1220
  %13 = load i8*, i8** %_5, align 8, !dbg !1222, !nonnull !23, !noundef !23
  store i8* %13, i8** %2, align 8, !dbg !1222
  br label %bb3, !dbg !1215

bb3:                                              ; preds = %bb2, %bb1
  %14 = load i8*, i8** %2, align 8, !dbg !1223
  ret i8* %14, !dbg !1223
}

; core::iter::range::<impl core::iter::traits::iterator::Iterator for core::ops::range::Range<A>>::next
; Function Attrs: inlinehint nonlazybind uwtable
define internal { i64, i64 } @"_ZN4core4iter5range101_$LT$impl$u20$core..iter..traits..iterator..Iterator$u20$for$u20$core..ops..range..Range$LT$A$GT$$GT$4next17hf0c8e6a807a2d16cE"({ i64, i64 }* align 8 %self) unnamed_addr #0 !dbg !1224 {
start:
  %self.dbg.spill = alloca { i64, i64 }*, align 8
  store { i64, i64 }* %self, { i64, i64 }** %self.dbg.spill, align 8
  call void @llvm.dbg.declare(metadata { i64, i64 }** %self.dbg.spill, metadata !1237, metadata !DIExpression()), !dbg !1240
; call <core::ops::range::Range<T> as core::iter::range::RangeIteratorImpl>::spec_next
  %0 = call { i64, i64 } @"_ZN89_$LT$core..ops..range..Range$LT$T$GT$$u20$as$u20$core..iter..range..RangeIteratorImpl$GT$9spec_next17h728e80b1bfdf1381E"({ i64, i64 }* align 8 %self), !dbg !1241
  %1 = extractvalue { i64, i64 } %0, 0, !dbg !1241
  %2 = extractvalue { i64, i64 } %0, 1, !dbg !1241
  br label %bb1, !dbg !1241

bb1:                                              ; preds = %start
  %3 = insertvalue { i64, i64 } undef, i64 %1, 0, !dbg !1242
  %4 = insertvalue { i64, i64 } %3, i64 %2, 1, !dbg !1242
  ret { i64, i64 } %4, !dbg !1242
}

; core::alloc::layout::Layout::from_size_valid_align
; Function Attrs: inlinehint nonlazybind uwtable
define internal { i64, i64 } @_ZN4core5alloc6layout6Layout21from_size_valid_align17h553c75429d506699E(i64 %size, i64 %align) unnamed_addr #0 !dbg !1243 {
start:
  %n.dbg.spill = alloca i64, align 8
  %align.dbg.spill = alloca i64, align 8
  %size.dbg.spill = alloca i64, align 8
  %_11 = alloca { i64, i64 }, align 8
  %self1 = alloca i64, align 8
  %self = alloca i64, align 8
  %0 = alloca { i64, i64 }, align 8
  store i64 %size, i64* %size.dbg.spill, align 8
  call void @llvm.dbg.declare(metadata i64* %size.dbg.spill, metadata !1265, metadata !DIExpression()), !dbg !1267
  store i64 %align, i64* %align.dbg.spill, align 8
  call void @llvm.dbg.declare(metadata i64* %align.dbg.spill, metadata !1266, metadata !DIExpression()), !dbg !1268
  call void @llvm.dbg.declare(metadata i64* %self, metadata !1269, metadata !DIExpression()), !dbg !1280
  call void @llvm.dbg.declare(metadata i64* %self1, metadata !1282, metadata !DIExpression()), !dbg !1289
  store i64 %align, i64* %self1, align 8, !dbg !1281
  %_15 = load i64, i64* %self1, align 8, !dbg !1289, !range !1290, !noundef !23
  store i64 %_15, i64* %n.dbg.spill, align 8, !dbg !1289
  call void @llvm.dbg.declare(metadata i64* %n.dbg.spill, metadata !1291, metadata !DIExpression()), !dbg !1306
  store i64 %_15, i64* %self, align 8, !dbg !1306
  %_8 = load i64, i64* %self, align 8, !dbg !1280
  %_7 = sub i64 %_8, 1, !dbg !1308
  %_5 = sub i64 9223372036854775807, %_7, !dbg !1309
  %_3 = icmp ugt i64 %size, %_5, !dbg !1310
  br i1 %_3, label %bb1, label %bb2, !dbg !1310

bb2:                                              ; preds = %start
  %1 = bitcast { i64, i64 }* %_11 to i64*, !dbg !1311
  store i64 %size, i64* %1, align 8, !dbg !1311
  %2 = getelementptr inbounds { i64, i64 }, { i64, i64 }* %_11, i32 0, i32 1, !dbg !1311
  store i64 %align, i64* %2, align 8, !dbg !1311
  %3 = getelementptr inbounds { i64, i64 }, { i64, i64 }* %_11, i32 0, i32 0, !dbg !1312
  %4 = load i64, i64* %3, align 8, !dbg !1312
  %5 = getelementptr inbounds { i64, i64 }, { i64, i64 }* %_11, i32 0, i32 1, !dbg !1312
  %6 = load i64, i64* %5, align 8, !dbg !1312, !range !1290, !noundef !23
  %7 = getelementptr inbounds { i64, i64 }, { i64, i64 }* %0, i32 0, i32 0, !dbg !1312
  store i64 %4, i64* %7, align 8, !dbg !1312
  %8 = getelementptr inbounds { i64, i64 }, { i64, i64 }* %0, i32 0, i32 1, !dbg !1312
  store i64 %6, i64* %8, align 8, !dbg !1312
  br label %bb3, !dbg !1313

bb1:                                              ; preds = %start
  %9 = getelementptr inbounds { i64, i64 }, { i64, i64 }* %0, i32 0, i32 1, !dbg !1314
  store i64 0, i64* %9, align 8, !dbg !1314
  br label %bb3, !dbg !1313

bb3:                                              ; preds = %bb2, %bb1
  %10 = getelementptr inbounds { i64, i64 }, { i64, i64 }* %0, i32 0, i32 0, !dbg !1313
  %11 = load i64, i64* %10, align 8, !dbg !1313
  %12 = getelementptr inbounds { i64, i64 }, { i64, i64 }* %0, i32 0, i32 1, !dbg !1313
  %13 = load i64, i64* %12, align 8, !dbg !1313, !range !277, !noundef !23
  %14 = insertvalue { i64, i64 } undef, i64 %11, 0, !dbg !1313
  %15 = insertvalue { i64, i64 } %14, i64 %13, 1, !dbg !1313
  ret { i64, i64 } %15, !dbg !1313
}

; core::alloc::layout::Layout::array
; Function Attrs: inlinehint nonlazybind uwtable
define internal { i64, i64 } @_ZN4core5alloc6layout6Layout5array17h68d132fe5c72c262E(i64 %n) unnamed_addr #0 !dbg !1315 {
start:
  %0 = alloca i64, align 8
  %align.dbg.spill = alloca i64, align 8
  %array_size.dbg.spill = alloca i64, align 8
  %val.dbg.spill = alloca i64, align 8
  %v.dbg.spill5 = alloca i64, align 8
  %v.dbg.spill = alloca i64, align 8
  %e.dbg.spill3 = alloca %"core::alloc::layout::LayoutError", align 1
  %e.dbg.spill = alloca %"core::alloc::layout::LayoutError", align 1
  %residual.dbg.spill2 = alloca %"core::result::Result<core::convert::Infallible, core::alloc::layout::LayoutError>::Err", align 1
  %residual.dbg.spill = alloca %"core::result::Result<core::convert::Infallible, core::alloc::layout::LayoutError>::Err", align 1
  %err.dbg.spill = alloca %"core::alloc::layout::LayoutError", align 1
  %n.dbg.spill = alloca i64, align 8
  %self1 = alloca { i64, i64 }, align 8
  %self = alloca { i64, i64 }, align 8
  %_3 = alloca { i64, i64 }, align 8
  %1 = alloca { i64, i64 }, align 8
  store i64 %n, i64* %n.dbg.spill, align 8
  call void @llvm.dbg.declare(metadata i64* %n.dbg.spill, metadata !1319, metadata !DIExpression()), !dbg !1344
  call void @llvm.dbg.declare(metadata { i64, i64 }* %self, metadata !1345, metadata !DIExpression()), !dbg !1390
  call void @llvm.dbg.declare(metadata { i64, i64 }* %self1, metadata !1392, metadata !DIExpression()), !dbg !1403
  call void @llvm.dbg.declare(metadata %"core::alloc::layout::LayoutError"* %err.dbg.spill, metadata !1399, metadata !DIExpression()), !dbg !1403
  call void @llvm.dbg.declare(metadata %"core::result::Result<core::convert::Infallible, core::alloc::layout::LayoutError>::Err"* %residual.dbg.spill, metadata !1322, metadata !DIExpression()), !dbg !1404
  call void @llvm.dbg.declare(metadata %"core::result::Result<core::convert::Infallible, core::alloc::layout::LayoutError>::Err"* %residual.dbg.spill2, metadata !1405, metadata !DIExpression()), !dbg !1417
  call void @llvm.dbg.declare(metadata %"core::alloc::layout::LayoutError"* %e.dbg.spill, metadata !1387, metadata !DIExpression()), !dbg !1419
  call void @llvm.dbg.declare(metadata %"core::alloc::layout::LayoutError"* %e.dbg.spill3, metadata !1412, metadata !DIExpression()), !dbg !1420
; call core::num::<impl usize>::checked_mul
  %2 = call { i64, i64 } @"_ZN4core3num23_$LT$impl$u20$usize$GT$11checked_mul17h5275f3d8f38f5cedE"(i64 4, i64 %n), !dbg !1391
  store { i64, i64 } %2, { i64, i64 }* %self1, align 8, !dbg !1391
  br label %bb1, !dbg !1391

bb1:                                              ; preds = %start
  %3 = bitcast { i64, i64 }* %self1 to i64*, !dbg !1403
  %_15 = load i64, i64* %3, align 8, !dbg !1403, !range !932, !noundef !23
  switch i64 %_15, label %bb9 [
    i64 0, label %bb8
    i64 1, label %bb10
  ], !dbg !1403

bb9:                                              ; preds = %bb1
  unreachable, !dbg !1403

bb8:                                              ; preds = %bb1
  %4 = bitcast { i64, i64 }* %self to i64*, !dbg !1403
  store i64 1, i64* %4, align 8, !dbg !1403
  br label %bb11, !dbg !1403

bb10:                                             ; preds = %bb1
  %5 = getelementptr inbounds { i64, i64 }, { i64, i64 }* %self1, i32 0, i32 1, !dbg !1403
  %v = load i64, i64* %5, align 8, !dbg !1403
  store i64 %v, i64* %v.dbg.spill, align 8, !dbg !1403
  call void @llvm.dbg.declare(metadata i64* %v.dbg.spill, metadata !1400, metadata !DIExpression()), !dbg !1421
  %6 = getelementptr inbounds { i64, i64 }, { i64, i64 }* %self, i32 0, i32 1, !dbg !1421
  store i64 %v, i64* %6, align 8, !dbg !1421
  %7 = bitcast { i64, i64 }* %self to i64*, !dbg !1421
  store i64 0, i64* %7, align 8, !dbg !1421
  br label %bb11, !dbg !1403

bb11:                                             ; preds = %bb8, %bb10
  %8 = bitcast { i64, i64 }* %self to i64*, !dbg !1390
  %_18 = load i64, i64* %8, align 8, !dbg !1390, !range !932, !noundef !23
  switch i64 %_18, label %bb13 [
    i64 0, label %bb14
    i64 1, label %bb12
  ], !dbg !1390

bb13:                                             ; preds = %bb11
  unreachable, !dbg !1390

bb14:                                             ; preds = %bb11
  %9 = getelementptr inbounds { i64, i64 }, { i64, i64 }* %self, i32 0, i32 1, !dbg !1390
  %v4 = load i64, i64* %9, align 8, !dbg !1390
  store i64 %v4, i64* %v.dbg.spill5, align 8, !dbg !1390
  call void @llvm.dbg.declare(metadata i64* %v.dbg.spill5, metadata !1384, metadata !DIExpression()), !dbg !1422
  %10 = getelementptr inbounds { i64, i64 }, { i64, i64 }* %_3, i32 0, i32 1, !dbg !1422
  store i64 %v4, i64* %10, align 8, !dbg !1422
  %11 = bitcast { i64, i64 }* %_3 to i64*, !dbg !1422
  store i64 0, i64* %11, align 8, !dbg !1422
  br label %bb2, !dbg !1390

bb12:                                             ; preds = %bb11
  %12 = bitcast { i64, i64 }* %_3 to i64*, !dbg !1419
  store i64 1, i64* %12, align 8, !dbg !1419
  br label %bb2, !dbg !1390

bb2:                                              ; preds = %bb14, %bb12
  %13 = bitcast { i64, i64 }* %_3 to i64*, !dbg !1391
  %_9 = load i64, i64* %13, align 8, !dbg !1391, !range !932, !noundef !23
  switch i64 %_9, label %bb4 [
    i64 0, label %bb3
    i64 1, label %bb5
  ], !dbg !1391

bb4:                                              ; preds = %bb2
  unreachable, !dbg !1391

bb3:                                              ; preds = %bb2
  %14 = getelementptr inbounds { i64, i64 }, { i64, i64 }* %_3, i32 0, i32 1, !dbg !1391
  %val = load i64, i64* %14, align 8, !dbg !1391
  store i64 %val, i64* %val.dbg.spill, align 8, !dbg !1391
  call void @llvm.dbg.declare(metadata i64* %val.dbg.spill, metadata !1342, metadata !DIExpression()), !dbg !1423
  store i64 %val, i64* %array_size.dbg.spill, align 8, !dbg !1423
  call void @llvm.dbg.declare(metadata i64* %array_size.dbg.spill, metadata !1320, metadata !DIExpression()), !dbg !1424
  store i64 4, i64* %align.dbg.spill, align 8, !dbg !1425
  call void @llvm.dbg.declare(metadata i64* %align.dbg.spill, metadata !1435, metadata !DIExpression()), !dbg !1449
  store i64 4, i64* %0, align 8, !dbg !1449
  %_14 = load i64, i64* %0, align 8, !dbg !1449, !range !1290, !noundef !23
  br label %bb15, !dbg !1449

bb5:                                              ; preds = %bb2
; call <T as core::convert::From<T>>::from
  call void @"_ZN50_$LT$T$u20$as$u20$core..convert..From$LT$T$GT$$GT$4from17h1bf1f66310464536E"(), !dbg !1420
  br label %bb16, !dbg !1420

bb16:                                             ; preds = %bb5
  %15 = getelementptr inbounds { i64, i64 }, { i64, i64 }* %1, i32 0, i32 1, !dbg !1420
  store i64 0, i64* %15, align 8, !dbg !1420
  br label %bb7, !dbg !1451

bb7:                                              ; preds = %bb6, %bb16
  %16 = getelementptr inbounds { i64, i64 }, { i64, i64 }* %1, i32 0, i32 0, !dbg !1451
  %17 = load i64, i64* %16, align 8, !dbg !1451
  %18 = getelementptr inbounds { i64, i64 }, { i64, i64 }* %1, i32 0, i32 1, !dbg !1451
  %19 = load i64, i64* %18, align 8, !dbg !1451, !range !277, !noundef !23
  %20 = insertvalue { i64, i64 } undef, i64 %17, 0, !dbg !1451
  %21 = insertvalue { i64, i64 } %20, i64 %19, 1, !dbg !1451
  ret { i64, i64 } %21, !dbg !1451

bb15:                                             ; preds = %bb3
; call core::alloc::layout::Layout::from_size_valid_align
  %22 = call { i64, i64 } @_ZN4core5alloc6layout6Layout21from_size_valid_align17h553c75429d506699E(i64 %val, i64 %_14), !dbg !1452
  store { i64, i64 } %22, { i64, i64 }* %1, align 8, !dbg !1452
  br label %bb6, !dbg !1452

bb6:                                              ; preds = %bb15
  br label %bb7, !dbg !1451
}

; core::array::<impl core::fmt::Debug for [T; N]>::fmt
; Function Attrs: nonlazybind uwtable
define internal zeroext i1 @"_ZN4core5array69_$LT$impl$u20$core..fmt..Debug$u20$for$u20$$u5b$T$u3b$$u20$N$u5d$$GT$3fmt17hf61e17d33cd8cebbE"([2 x i32]* align 4 %self, %"core::fmt::Formatter"* align 8 %f) unnamed_addr #2 !dbg !1453 {
start:
  %slice.dbg.spill = alloca { [0 x i32]*, i64 }, align 8
  %self.dbg.spill4 = alloca { [0 x i32]*, i64 }, align 8
  %self.dbg.spill3 = alloca [2 x i32]*, align 8
  %self.dbg.spill2 = alloca %"core::ops::range::RangeFull", align 1
  %index.dbg.spill1 = alloca %"core::ops::range::RangeFull", align 1
  %index.dbg.spill = alloca %"core::ops::range::RangeFull", align 1
  %f.dbg.spill = alloca %"core::fmt::Formatter"*, align 8
  %self.dbg.spill = alloca [2 x i32]*, align 8
  %_5 = alloca { [0 x i32]*, i64 }, align 8
  store [2 x i32]* %self, [2 x i32]** %self.dbg.spill, align 8
  call void @llvm.dbg.declare(metadata [2 x i32]** %self.dbg.spill, metadata !1460, metadata !DIExpression()), !dbg !1462
  store %"core::fmt::Formatter"* %f, %"core::fmt::Formatter"** %f.dbg.spill, align 8
  call void @llvm.dbg.declare(metadata %"core::fmt::Formatter"** %f.dbg.spill, metadata !1461, metadata !DIExpression()), !dbg !1463
  call void @llvm.dbg.declare(metadata %"core::ops::range::RangeFull"* %index.dbg.spill, metadata !1464, metadata !DIExpression()), !dbg !1474
  call void @llvm.dbg.declare(metadata %"core::ops::range::RangeFull"* %index.dbg.spill1, metadata !1476, metadata !DIExpression()), !dbg !1486
  call void @llvm.dbg.declare(metadata %"core::ops::range::RangeFull"* %self.dbg.spill2, metadata !1488, metadata !DIExpression()), !dbg !1496
  store [2 x i32]* %self, [2 x i32]** %self.dbg.spill3, align 8, !dbg !1475
  call void @llvm.dbg.declare(metadata [2 x i32]** %self.dbg.spill3, metadata !1471, metadata !DIExpression()), !dbg !1474
  %_11.0 = bitcast [2 x i32]* %self to [0 x i32]*, !dbg !1474
  %0 = getelementptr inbounds { [0 x i32]*, i64 }, { [0 x i32]*, i64 }* %self.dbg.spill4, i32 0, i32 0, !dbg !1474
  store [0 x i32]* %_11.0, [0 x i32]** %0, align 8, !dbg !1474
  %1 = getelementptr inbounds { [0 x i32]*, i64 }, { [0 x i32]*, i64 }* %self.dbg.spill4, i32 0, i32 1, !dbg !1474
  store i64 2, i64* %1, align 8, !dbg !1474
  call void @llvm.dbg.declare(metadata { [0 x i32]*, i64 }* %self.dbg.spill4, metadata !1485, metadata !DIExpression()), !dbg !1486
  %2 = getelementptr inbounds { [0 x i32]*, i64 }, { [0 x i32]*, i64 }* %slice.dbg.spill, i32 0, i32 0, !dbg !1486
  store [0 x i32]* %_11.0, [0 x i32]** %2, align 8, !dbg !1486
  %3 = getelementptr inbounds { [0 x i32]*, i64 }, { [0 x i32]*, i64 }* %slice.dbg.spill, i32 0, i32 1, !dbg !1486
  store i64 2, i64* %3, align 8, !dbg !1486
  call void @llvm.dbg.declare(metadata { [0 x i32]*, i64 }* %slice.dbg.spill, metadata !1495, metadata !DIExpression()), !dbg !1496
  %4 = getelementptr inbounds { [0 x i32]*, i64 }, { [0 x i32]*, i64 }* %_5, i32 0, i32 0, !dbg !1498
  store [0 x i32]* %_11.0, [0 x i32]** %4, align 8, !dbg !1498
  %5 = getelementptr inbounds { [0 x i32]*, i64 }, { [0 x i32]*, i64 }* %_5, i32 0, i32 1, !dbg !1498
  store i64 2, i64* %5, align 8, !dbg !1498
; call <&T as core::fmt::Debug>::fmt
  %6 = call zeroext i1 @"_ZN42_$LT$$RF$T$u20$as$u20$core..fmt..Debug$GT$3fmt17h7f6552a0aa4df737E"({ [0 x i32]*, i64 }* align 8 %_5, %"core::fmt::Formatter"* align 8 %f), !dbg !1499
  br label %bb1, !dbg !1499

bb1:                                              ; preds = %start
  ret i1 %6, !dbg !1500
}

; core::array::equality::<impl core::cmp::PartialEq<[B; N]> for [A; N]>::eq
; Function Attrs: inlinehint nonlazybind uwtable
define internal zeroext i1 @"_ZN4core5array8equality103_$LT$impl$u20$core..cmp..PartialEq$LT$$u5b$B$u3b$$u20$N$u5d$$GT$$u20$for$u20$$u5b$A$u3b$$u20$N$u5d$$GT$2eq17h3b0eace8b98ef178E"([2 x i32]* align 4 %self, [2 x i32]* align 4 %other) unnamed_addr #0 !dbg !1501 {
start:
  %other.dbg.spill = alloca [2 x i32]*, align 8
  %self.dbg.spill = alloca [2 x i32]*, align 8
  store [2 x i32]* %self, [2 x i32]** %self.dbg.spill, align 8
  call void @llvm.dbg.declare(metadata [2 x i32]** %self.dbg.spill, metadata !1508, metadata !DIExpression()), !dbg !1513
  store [2 x i32]* %other, [2 x i32]** %other.dbg.spill, align 8
  call void @llvm.dbg.declare(metadata [2 x i32]** %other.dbg.spill, metadata !1509, metadata !DIExpression()), !dbg !1514
; call <T as core::array::equality::SpecArrayEq<U,_>>::spec_eq
  %0 = call zeroext i1 @"_ZN69_$LT$T$u20$as$u20$core..array..equality..SpecArrayEq$LT$U$C$_$GT$$GT$7spec_eq17h1bfe710c6ea46e74E"([2 x i32]* align 4 %self, [2 x i32]* align 4 %other), !dbg !1515
  br label %bb1, !dbg !1515

bb1:                                              ; preds = %start
  ret i1 %0, !dbg !1516
}

; core::clone::impls::<impl core::clone::Clone for i32>::clone
; Function Attrs: inlinehint nonlazybind uwtable
define internal i32 @"_ZN4core5clone5impls52_$LT$impl$u20$core..clone..Clone$u20$for$u20$i32$GT$5clone17h63aa2151c872ffb9E"(i32* align 4 %self) unnamed_addr #0 !dbg !1517 {
start:
  %self.dbg.spill = alloca i32*, align 8
  store i32* %self, i32** %self.dbg.spill, align 8
  call void @llvm.dbg.declare(metadata i32** %self.dbg.spill, metadata !1525, metadata !DIExpression()), !dbg !1526
  %0 = load i32, i32* %self, align 4, !dbg !1527
  ret i32 %0, !dbg !1528
}

; core::clone::impls::<impl core::clone::Clone for usize>::clone
; Function Attrs: inlinehint nonlazybind uwtable
define internal i64 @"_ZN4core5clone5impls54_$LT$impl$u20$core..clone..Clone$u20$for$u20$usize$GT$5clone17h53131a1e2f102773E"(i64* align 8 %self) unnamed_addr #0 !dbg !1529 {
start:
  %self.dbg.spill = alloca i64*, align 8
  store i64* %self, i64** %self.dbg.spill, align 8
  call void @llvm.dbg.declare(metadata i64** %self.dbg.spill, metadata !1534, metadata !DIExpression()), !dbg !1535
  %0 = load i64, i64* %self, align 8, !dbg !1536
  ret i64 %0, !dbg !1537
}

; core::slice::<impl [T]>::as_mut_ptr
; Function Attrs: inlinehint nonlazybind uwtable
define internal i32* @"_ZN4core5slice29_$LT$impl$u20$$u5b$T$u5d$$GT$10as_mut_ptr17h11aa4d5bc39de937E"([0 x i32]* align 4 %self.0, i64 %self.1) unnamed_addr #0 !dbg !1538 {
start:
  %self.dbg.spill = alloca { [0 x i32]*, i64 }, align 8
  %0 = getelementptr inbounds { [0 x i32]*, i64 }, { [0 x i32]*, i64 }* %self.dbg.spill, i32 0, i32 0
  store [0 x i32]* %self.0, [0 x i32]** %0, align 8
  %1 = getelementptr inbounds { [0 x i32]*, i64 }, { [0 x i32]*, i64 }* %self.dbg.spill, i32 0, i32 1
  store i64 %self.1, i64* %1, align 8
  call void @llvm.dbg.declare(metadata { [0 x i32]*, i64 }* %self.dbg.spill, metadata !1548, metadata !DIExpression()), !dbg !1549
  %2 = bitcast [0 x i32]* %self.0 to i32*, !dbg !1550
  ret i32* %2, !dbg !1551
}

; core::slice::<impl [T]>::as_mut_ptr
; Function Attrs: inlinehint nonlazybind uwtable
define internal i32* @"_ZN4core5slice29_$LT$impl$u20$$u5b$T$u5d$$GT$10as_mut_ptr17h219c650c35cacae1E"([0 x i32]* align 4 %self.0, i64 %self.1) unnamed_addr #0 !dbg !1552 {
start:
  %self.dbg.spill = alloca { [0 x i32]*, i64 }, align 8
  %0 = getelementptr inbounds { [0 x i32]*, i64 }, { [0 x i32]*, i64 }* %self.dbg.spill, i32 0, i32 0
  store [0 x i32]* %self.0, [0 x i32]** %0, align 8
  %1 = getelementptr inbounds { [0 x i32]*, i64 }, { [0 x i32]*, i64 }* %self.dbg.spill, i32 0, i32 1
  store i64 %self.1, i64* %1, align 8
  call void @llvm.dbg.declare(metadata { [0 x i32]*, i64 }* %self.dbg.spill, metadata !1561, metadata !DIExpression()), !dbg !1562
  %2 = bitcast [0 x i32]* %self.0 to i32*, !dbg !1563
  ret i32* %2, !dbg !1564
}

; core::slice::<impl [T]>::as_mut_ptr
; Function Attrs: inlinehint nonlazybind uwtable
define internal [4 x [5 x i32]]* @"_ZN4core5slice29_$LT$impl$u20$$u5b$T$u5d$$GT$10as_mut_ptr17h57ea2a9e05028a3eE"([0 x [4 x [5 x i32]]]* align 4 %self.0, i64 %self.1) unnamed_addr #0 !dbg !1565 {
start:
  %self.dbg.spill = alloca { [0 x [4 x [5 x i32]]]*, i64 }, align 8
  %0 = getelementptr inbounds { [0 x [4 x [5 x i32]]]*, i64 }, { [0 x [4 x [5 x i32]]]*, i64 }* %self.dbg.spill, i32 0, i32 0
  store [0 x [4 x [5 x i32]]]* %self.0, [0 x [4 x [5 x i32]]]** %0, align 8
  %1 = getelementptr inbounds { [0 x [4 x [5 x i32]]]*, i64 }, { [0 x [4 x [5 x i32]]]*, i64 }* %self.dbg.spill, i32 0, i32 1
  store i64 %self.1, i64* %1, align 8
  call void @llvm.dbg.declare(metadata { [0 x [4 x [5 x i32]]]*, i64 }* %self.dbg.spill, metadata !1579, metadata !DIExpression()), !dbg !1582
  %2 = bitcast [0 x [4 x [5 x i32]]]* %self.0 to [4 x [5 x i32]]*, !dbg !1583
  ret [4 x [5 x i32]]* %2, !dbg !1584
}

; core::slice::<impl [T]>::as_mut_ptr
; Function Attrs: inlinehint nonlazybind uwtable
define internal i8* @"_ZN4core5slice29_$LT$impl$u20$$u5b$T$u5d$$GT$10as_mut_ptr17hac7faaeaafda87e0E"([0 x i8]* align 1 %self.0, i64 %self.1) unnamed_addr #0 !dbg !1585 {
start:
  %self.dbg.spill = alloca { [0 x i8]*, i64 }, align 8
  %0 = getelementptr inbounds { [0 x i8]*, i64 }, { [0 x i8]*, i64 }* %self.dbg.spill, i32 0, i32 0
  store [0 x i8]* %self.0, [0 x i8]** %0, align 8
  %1 = getelementptr inbounds { [0 x i8]*, i64 }, { [0 x i8]*, i64 }* %self.dbg.spill, i32 0, i32 1
  store i64 %self.1, i64* %1, align 8
  call void @llvm.dbg.declare(metadata { [0 x i8]*, i64 }* %self.dbg.spill, metadata !1594, metadata !DIExpression()), !dbg !1597
  %2 = bitcast [0 x i8]* %self.0 to i8*, !dbg !1598
  ret i8* %2, !dbg !1599
}

; core::slice::<impl [T]>::as_mut_ptr
; Function Attrs: inlinehint nonlazybind uwtable
define internal [5 x i32]* @"_ZN4core5slice29_$LT$impl$u20$$u5b$T$u5d$$GT$10as_mut_ptr17hd2020a2d1ced27d1E"([0 x [5 x i32]]* align 4 %self.0, i64 %self.1) unnamed_addr #0 !dbg !1600 {
start:
  %self.dbg.spill = alloca { [0 x [5 x i32]]*, i64 }, align 8
  %0 = getelementptr inbounds { [0 x [5 x i32]]*, i64 }, { [0 x [5 x i32]]*, i64 }* %self.dbg.spill, i32 0, i32 0
  store [0 x [5 x i32]]* %self.0, [0 x [5 x i32]]** %0, align 8
  %1 = getelementptr inbounds { [0 x [5 x i32]]*, i64 }, { [0 x [5 x i32]]*, i64 }* %self.dbg.spill, i32 0, i32 1
  store i64 %self.1, i64* %1, align 8
  call void @llvm.dbg.declare(metadata { [0 x [5 x i32]]*, i64 }* %self.dbg.spill, metadata !1610, metadata !DIExpression()), !dbg !1613
  %2 = bitcast [0 x [5 x i32]]* %self.0 to [5 x i32]*, !dbg !1614
  ret [5 x i32]* %2, !dbg !1615
}

; core::slice::<impl [T]>::as_ptr
; Function Attrs: inlinehint nonlazybind uwtable
define internal i32* @"_ZN4core5slice29_$LT$impl$u20$$u5b$T$u5d$$GT$6as_ptr17h1eda4966a3efb19dE"([0 x i32]* align 4 %self.0, i64 %self.1) unnamed_addr #0 !dbg !1616 {
start:
  %self.dbg.spill = alloca { [0 x i32]*, i64 }, align 8
  %0 = getelementptr inbounds { [0 x i32]*, i64 }, { [0 x i32]*, i64 }* %self.dbg.spill, i32 0, i32 0
  store [0 x i32]* %self.0, [0 x i32]** %0, align 8
  %1 = getelementptr inbounds { [0 x i32]*, i64 }, { [0 x i32]*, i64 }* %self.dbg.spill, i32 0, i32 1
  store i64 %self.1, i64* %1, align 8
  call void @llvm.dbg.declare(metadata { [0 x i32]*, i64 }* %self.dbg.spill, metadata !1620, metadata !DIExpression()), !dbg !1621
  %2 = bitcast [0 x i32]* %self.0 to i32*, !dbg !1622
  ret i32* %2, !dbg !1623
}

; core::slice::iter::Iter<T>::new
; Function Attrs: inlinehint nonlazybind uwtable
define internal { i32*, i32* } @"_ZN4core5slice4iter13Iter$LT$T$GT$3new17he358f5b01646211cE"([0 x i32]* align 4 %slice.0, i64 %slice.1) unnamed_addr #0 !dbg !1624 {
start:
  %ptr.dbg.spill11 = alloca i32*, align 8
  %0 = alloca i8*, align 8
  %count.dbg.spill10 = alloca i64, align 8
  %self.dbg.spill9 = alloca i8*, align 8
  %count.dbg.spill8 = alloca i64, align 8
  %self.dbg.spill7 = alloca i8*, align 8
  %count.dbg.spill5 = alloca i64, align 8
  %self.dbg.spill4 = alloca i32*, align 8
  %count.dbg.spill = alloca i64, align 8
  %self.dbg.spill3 = alloca i32*, align 8
  %1 = alloca i8, align 1
  %other.dbg.spill = alloca i8*, align 8
  %data_address.dbg.spill = alloca {}*, align 8
  %2 = alloca {}*, align 8
  %self.dbg.spill2 = alloca i8*, align 8
  %self.dbg.spill1 = alloca i32*, align 8
  %ptr.dbg.spill = alloca i32*, align 8
  %self.dbg.spill = alloca { [0 x i32]*, i64 }, align 8
  %metadata.dbg.spill = alloca {}, align 1
  %slice.dbg.spill = alloca { [0 x i32]*, i64 }, align 8
  %_31 = alloca %"core::ptr::metadata::PtrComponents<u8>", align 8
  %_30 = alloca %"core::ptr::metadata::PtrRepr<u8>", align 8
  %_18 = alloca i32*, align 8
  %end = alloca i32*, align 8
  %3 = alloca { i32*, i32* }, align 8
  %4 = getelementptr inbounds { [0 x i32]*, i64 }, { [0 x i32]*, i64 }* %slice.dbg.spill, i32 0, i32 0
  store [0 x i32]* %slice.0, [0 x i32]** %4, align 8
  %5 = getelementptr inbounds { [0 x i32]*, i64 }, { [0 x i32]*, i64 }* %slice.dbg.spill, i32 0, i32 1
  store i64 %slice.1, i64* %5, align 8
  call void @llvm.dbg.declare(metadata { [0 x i32]*, i64 }* %slice.dbg.spill, metadata !1627, metadata !DIExpression()), !dbg !1632
  call void @llvm.dbg.declare(metadata i32** %end, metadata !1630, metadata !DIExpression()), !dbg !1633
  call void @llvm.dbg.declare(metadata {}* %metadata.dbg.spill, metadata !1634, metadata !DIExpression()), !dbg !1641
  %6 = getelementptr inbounds { [0 x i32]*, i64 }, { [0 x i32]*, i64 }* %self.dbg.spill, i32 0, i32 0, !dbg !1657
  store [0 x i32]* %slice.0, [0 x i32]** %6, align 8, !dbg !1657
  %7 = getelementptr inbounds { [0 x i32]*, i64 }, { [0 x i32]*, i64 }* %self.dbg.spill, i32 0, i32 1, !dbg !1657
  store i64 %slice.1, i64* %7, align 8, !dbg !1657
  call void @llvm.dbg.declare(metadata { [0 x i32]*, i64 }* %self.dbg.spill, metadata !1658, metadata !DIExpression()), !dbg !1662
  %ptr = bitcast [0 x i32]* %slice.0 to i32*, !dbg !1662
  store i32* %ptr, i32** %ptr.dbg.spill, align 8, !dbg !1662
  call void @llvm.dbg.declare(metadata i32** %ptr.dbg.spill, metadata !1628, metadata !DIExpression()), !dbg !1663
  store i32* %ptr, i32** %self.dbg.spill1, align 8, !dbg !1656
  call void @llvm.dbg.declare(metadata i32** %self.dbg.spill1, metadata !1654, metadata !DIExpression()), !dbg !1664
  %self = bitcast i32* %ptr to i8*, !dbg !1664
  store i8* %self, i8** %self.dbg.spill2, align 8, !dbg !1664
  call void @llvm.dbg.declare(metadata i8** %self.dbg.spill2, metadata !1665, metadata !DIExpression()), !dbg !1672
  %8 = bitcast {}** %2 to i64*, !dbg !1674
  store i64 0, i64* %8, align 8, !dbg !1674
  %data_address = load {}*, {}** %2, align 8, !dbg !1674
  store {}* %data_address, {}** %data_address.dbg.spill, align 8, !dbg !1674
  call void @llvm.dbg.declare(metadata {}** %data_address.dbg.spill, metadata !1640, metadata !DIExpression()), !dbg !1641
  br label %bb5, !dbg !1674

bb5:                                              ; preds = %start
  %9 = bitcast %"core::ptr::metadata::PtrComponents<u8>"* %_31 to {}**, !dbg !1641
  store {}* %data_address, {}** %9, align 8, !dbg !1641
  %10 = bitcast %"core::ptr::metadata::PtrRepr<u8>"* %_30 to %"core::ptr::metadata::PtrComponents<u8>"*, !dbg !1641
  %11 = bitcast %"core::ptr::metadata::PtrComponents<u8>"* %10 to i8*, !dbg !1641
  %12 = bitcast %"core::ptr::metadata::PtrComponents<u8>"* %_31 to i8*, !dbg !1641
  call void @llvm.memcpy.p0i8.p0i8.i64(i8* align 8 %11, i8* align 8 %12, i64 8, i1 false), !dbg !1641
  %13 = bitcast %"core::ptr::metadata::PtrRepr<u8>"* %_30 to i8**, !dbg !1641
  %other = load i8*, i8** %13, align 8, !dbg !1641
  store i8* %other, i8** %other.dbg.spill, align 8, !dbg !1641
  call void @llvm.dbg.declare(metadata i8** %other.dbg.spill, metadata !1671, metadata !DIExpression()), !dbg !1672
  %14 = icmp eq i8* %self, %other, !dbg !1672
  %15 = zext i1 %14 to i8, !dbg !1672
  store i8 %15, i8* %1, align 1, !dbg !1672
  %16 = load i8, i8* %1, align 1, !dbg !1672, !range !582, !noundef !23
  %_6 = trunc i8 %16 to i1, !dbg !1672
  br label %bb6, !dbg !1672

bb6:                                              ; preds = %bb5
  %_5 = xor i1 %_6, true, !dbg !1682
  call void @llvm.assume(i1 %_5), !dbg !1683
  br label %bb1, !dbg !1683

bb1:                                              ; preds = %bb6
  br i1 false, label %bb2, label %bb3, !dbg !1684

bb2:                                              ; preds = %bb1
  %self6 = bitcast i32* %ptr to i8*, !dbg !1685
  store i8* %self6, i8** %self.dbg.spill7, align 8, !dbg !1685
  call void @llvm.dbg.declare(metadata i8** %self.dbg.spill7, metadata !1686, metadata !DIExpression()), !dbg !1693
  store i64 %slice.1, i64* %count.dbg.spill8, align 8, !dbg !1694
  call void @llvm.dbg.declare(metadata i64* %count.dbg.spill8, metadata !1692, metadata !DIExpression()), !dbg !1693
  store i8* %self6, i8** %self.dbg.spill9, align 8, !dbg !1693
  call void @llvm.dbg.declare(metadata i8** %self.dbg.spill9, metadata !1695, metadata !DIExpression()), !dbg !1702
  store i64 %slice.1, i64* %count.dbg.spill10, align 8, !dbg !1693
  call void @llvm.dbg.declare(metadata i64* %count.dbg.spill10, metadata !1701, metadata !DIExpression()), !dbg !1702
  %17 = getelementptr i8, i8* %self6, i64 %slice.1, !dbg !1702
  store i8* %17, i8** %0, align 8, !dbg !1702
  %_10 = load i8*, i8** %0, align 8, !dbg !1702
  br label %bb7, !dbg !1702

bb3:                                              ; preds = %bb1
  store i32* %ptr, i32** %self.dbg.spill3, align 8, !dbg !1704
  call void @llvm.dbg.declare(metadata i32** %self.dbg.spill3, metadata !1705, metadata !DIExpression()), !dbg !1712
  store i64 %slice.1, i64* %count.dbg.spill, align 8, !dbg !1713
  call void @llvm.dbg.declare(metadata i64* %count.dbg.spill, metadata !1711, metadata !DIExpression()), !dbg !1712
  store i32* %ptr, i32** %self.dbg.spill4, align 8, !dbg !1712
  call void @llvm.dbg.declare(metadata i32** %self.dbg.spill4, metadata !1714, metadata !DIExpression()), !dbg !1721
  store i64 %slice.1, i64* %count.dbg.spill5, align 8, !dbg !1712
  call void @llvm.dbg.declare(metadata i64* %count.dbg.spill5, metadata !1720, metadata !DIExpression()), !dbg !1721
  %18 = getelementptr inbounds i32, i32* %ptr, i64 %slice.1, !dbg !1721
  store i32* %18, i32** %end, align 8, !dbg !1721
  br label %bb8, !dbg !1721

bb8:                                              ; preds = %bb3
  br label %bb4, !dbg !1723

bb4:                                              ; preds = %bb7, %bb8
  store i32* %ptr, i32** %ptr.dbg.spill11, align 8, !dbg !1724
  call void @llvm.dbg.declare(metadata i32** %ptr.dbg.spill11, metadata !1725, metadata !DIExpression()), !dbg !1731
  store i32* %ptr, i32** %_18, align 8, !dbg !1731
  %_21 = load i32*, i32** %end, align 8, !dbg !1733
  %19 = bitcast { i32*, i32* }* %3 to i32**, !dbg !1734
  %20 = load i32*, i32** %_18, align 8, !dbg !1734, !nonnull !23, !noundef !23
  store i32* %20, i32** %19, align 8, !dbg !1734
  %21 = getelementptr inbounds { i32*, i32* }, { i32*, i32* }* %3, i32 0, i32 1, !dbg !1734
  store i32* %_21, i32** %21, align 8, !dbg !1734
  %22 = getelementptr inbounds { i32*, i32* }, { i32*, i32* }* %3, i32 0, i32 0, !dbg !1735
  %23 = load i32*, i32** %22, align 8, !dbg !1735, !nonnull !23, !noundef !23
  %24 = getelementptr inbounds { i32*, i32* }, { i32*, i32* }* %3, i32 0, i32 1, !dbg !1735
  %25 = load i32*, i32** %24, align 8, !dbg !1735
  %26 = insertvalue { i32*, i32* } undef, i32* %23, 0, !dbg !1735
  %27 = insertvalue { i32*, i32* } %26, i32* %25, 1, !dbg !1735
  ret { i32*, i32* } %27, !dbg !1735

bb7:                                              ; preds = %bb2
  %28 = bitcast i8* %_10 to i32*, !dbg !1685
  store i32* %28, i32** %end, align 8, !dbg !1685
  br label %bb4, !dbg !1723
}

; core::result::Result<T,E>::map_err
; Function Attrs: inlinehint nonlazybind uwtable
define internal { i64, i64 } @"_ZN4core6result19Result$LT$T$C$E$GT$7map_err17h40accc27149908dbE"(i64 %0, i64 %1) unnamed_addr #0 !dbg !1736 {
start:
  %e.dbg.spill = alloca { i64, i64 }, align 8
  %t.dbg.spill = alloca {}, align 1
  %op.dbg.spill = alloca %"[closure@alloc::raw_vec::handle_reserve::{closure#0}]", align 1
  %_11 = alloca i8, align 1
  %_9 = alloca { i64, i64 }, align 8
  %2 = alloca { i64, i64 }, align 8
  %self = alloca { i64, i64 }, align 8
  %3 = getelementptr inbounds { i64, i64 }, { i64, i64 }* %self, i32 0, i32 0
  store i64 %0, i64* %3, align 8
  %4 = getelementptr inbounds { i64, i64 }, { i64, i64 }* %self, i32 0, i32 1
  store i64 %1, i64* %4, align 8
  call void @llvm.dbg.declare(metadata { i64, i64 }* %self, metadata !1772, metadata !DIExpression()), !dbg !1781
  call void @llvm.dbg.declare(metadata %"[closure@alloc::raw_vec::handle_reserve::{closure#0}]"* %op.dbg.spill, metadata !1773, metadata !DIExpression()), !dbg !1782
  call void @llvm.dbg.declare(metadata {}* %t.dbg.spill, metadata !1774, metadata !DIExpression()), !dbg !1783
  store i8 1, i8* %_11, align 1, !dbg !1784
  %5 = getelementptr inbounds { i64, i64 }, { i64, i64 }* %self, i32 0, i32 1, !dbg !1784
  %6 = load i64, i64* %5, align 8, !dbg !1784, !range !1785, !noundef !23
  %7 = sub i64 %6, -9223372036854775807, !dbg !1784
  %8 = icmp eq i64 %7, 0, !dbg !1784
  %_3 = select i1 %8, i64 0, i64 1, !dbg !1784
  switch i64 %_3, label %bb2 [
    i64 0, label %bb3
    i64 1, label %bb1
  ], !dbg !1786

bb2:                                              ; preds = %start
  unreachable, !dbg !1784

bb3:                                              ; preds = %start
  %9 = bitcast { i64, i64 }* %2 to %"core::result::Result<(), alloc::collections::TryReserveErrorKind>::Ok"*, !dbg !1787
  %10 = bitcast %"core::result::Result<(), alloc::collections::TryReserveErrorKind>::Ok"* %9 to {}*, !dbg !1787
  %11 = getelementptr inbounds { i64, i64 }, { i64, i64 }* %2, i32 0, i32 1, !dbg !1787
  store i64 -9223372036854775807, i64* %11, align 8, !dbg !1787
  br label %bb7, !dbg !1788

bb1:                                              ; preds = %start
  %12 = getelementptr inbounds { i64, i64 }, { i64, i64 }* %self, i32 0, i32 0, !dbg !1789
  %e.0 = load i64, i64* %12, align 8, !dbg !1789
  %13 = getelementptr inbounds { i64, i64 }, { i64, i64 }* %self, i32 0, i32 1, !dbg !1789
  %e.1 = load i64, i64* %13, align 8, !dbg !1789, !range !277, !noundef !23
  %14 = getelementptr inbounds { i64, i64 }, { i64, i64 }* %e.dbg.spill, i32 0, i32 0, !dbg !1789
  store i64 %e.0, i64* %14, align 8, !dbg !1789
  %15 = getelementptr inbounds { i64, i64 }, { i64, i64 }* %e.dbg.spill, i32 0, i32 1, !dbg !1789
  store i64 %e.1, i64* %15, align 8, !dbg !1789
  call void @llvm.dbg.declare(metadata { i64, i64 }* %e.dbg.spill, metadata !1776, metadata !DIExpression()), !dbg !1790
  store i8 0, i8* %_11, align 1, !dbg !1791
  %16 = getelementptr inbounds { i64, i64 }, { i64, i64 }* %_9, i32 0, i32 0, !dbg !1791
  store i64 %e.0, i64* %16, align 8, !dbg !1791
  %17 = getelementptr inbounds { i64, i64 }, { i64, i64 }* %_9, i32 0, i32 1, !dbg !1791
  store i64 %e.1, i64* %17, align 8, !dbg !1791
  %18 = getelementptr inbounds { i64, i64 }, { i64, i64 }* %_9, i32 0, i32 0, !dbg !1791
  %19 = load i64, i64* %18, align 8, !dbg !1791
  %20 = getelementptr inbounds { i64, i64 }, { i64, i64 }* %_9, i32 0, i32 1, !dbg !1791
  %21 = load i64, i64* %20, align 8, !dbg !1791, !range !277, !noundef !23
; call alloc::raw_vec::handle_reserve::{{closure}}
  %22 = call { i64, i64 } @"_ZN5alloc7raw_vec14handle_reserve28_$u7b$$u7b$closure$u7d$$u7d$17hebfde7fac505f1d2E"(i64 %19, i64 %21), !dbg !1791
  %_7.0 = extractvalue { i64, i64 } %22, 0, !dbg !1791
  %_7.1 = extractvalue { i64, i64 } %22, 1, !dbg !1791
  br label %bb4, !dbg !1791

bb4:                                              ; preds = %bb1
  %23 = getelementptr inbounds { i64, i64 }, { i64, i64 }* %2, i32 0, i32 0, !dbg !1792
  store i64 %_7.0, i64* %23, align 8, !dbg !1792
  %24 = getelementptr inbounds { i64, i64 }, { i64, i64 }* %2, i32 0, i32 1, !dbg !1792
  store i64 %_7.1, i64* %24, align 8, !dbg !1792
  br label %bb7, !dbg !1793

bb7:                                              ; preds = %bb3, %bb4
  %25 = load i8, i8* %_11, align 1, !dbg !1794, !range !582, !noundef !23
  %26 = trunc i8 %25 to i1, !dbg !1794
  br i1 %26, label %bb6, label %bb5, !dbg !1794

bb5:                                              ; preds = %bb6, %bb7
  %27 = getelementptr inbounds { i64, i64 }, { i64, i64 }* %2, i32 0, i32 0, !dbg !1795
  %28 = load i64, i64* %27, align 8, !dbg !1795
  %29 = getelementptr inbounds { i64, i64 }, { i64, i64 }* %2, i32 0, i32 1, !dbg !1795
  %30 = load i64, i64* %29, align 8, !dbg !1795, !range !1785, !noundef !23
  %31 = insertvalue { i64, i64 } undef, i64 %28, 0, !dbg !1795
  %32 = insertvalue { i64, i64 } %31, i64 %30, 1, !dbg !1795
  ret { i64, i64 } %32, !dbg !1795

bb6:                                              ; preds = %bb7
  br label %bb5, !dbg !1794
}

; core::result::Result<T,E>::map_err
; Function Attrs: inlinehint nonlazybind uwtable
define internal void @"_ZN4core6result19Result$LT$T$C$E$GT$7map_err17h5f0e4ab3a95b708bE"(%"core::result::Result<core::alloc::layout::Layout, alloc::collections::TryReserveErrorKind>"* sret(%"core::result::Result<core::alloc::layout::Layout, alloc::collections::TryReserveErrorKind>") %0, i64 %1, i64 %2) unnamed_addr #0 !dbg !1796 {
start:
  %t.dbg.spill = alloca { i64, i64 }, align 8
  %e.dbg.spill = alloca %"core::alloc::layout::LayoutError", align 1
  %op.dbg.spill = alloca %"[closure@alloc::raw_vec::finish_grow<alloc::alloc::Global>::{closure#0}]", align 1
  %_11 = alloca i8, align 1
  %_9 = alloca { %"core::alloc::layout::LayoutError" }, align 1
  %self = alloca { i64, i64 }, align 8
  %3 = getelementptr inbounds { i64, i64 }, { i64, i64 }* %self, i32 0, i32 0
  store i64 %1, i64* %3, align 8
  %4 = getelementptr inbounds { i64, i64 }, { i64, i64 }* %self, i32 0, i32 1
  store i64 %2, i64* %4, align 8
  call void @llvm.dbg.declare(metadata { i64, i64 }* %self, metadata !1816, metadata !DIExpression()), !dbg !1824
  call void @llvm.dbg.declare(metadata %"[closure@alloc::raw_vec::finish_grow<alloc::alloc::Global>::{closure#0}]"* %op.dbg.spill, metadata !1817, metadata !DIExpression()), !dbg !1825
  call void @llvm.dbg.declare(metadata %"core::alloc::layout::LayoutError"* %e.dbg.spill, metadata !1820, metadata !DIExpression()), !dbg !1826
  store i8 1, i8* %_11, align 1, !dbg !1827
  %5 = getelementptr inbounds { i64, i64 }, { i64, i64 }* %self, i32 0, i32 1, !dbg !1827
  %6 = load i64, i64* %5, align 8, !dbg !1827, !range !277, !noundef !23
  %7 = icmp eq i64 %6, 0, !dbg !1827
  %_3 = select i1 %7, i64 1, i64 0, !dbg !1827
  switch i64 %_3, label %bb2 [
    i64 0, label %bb3
    i64 1, label %bb1
  ], !dbg !1828

bb2:                                              ; preds = %start
  unreachable, !dbg !1827

bb3:                                              ; preds = %start
  %8 = getelementptr inbounds { i64, i64 }, { i64, i64 }* %self, i32 0, i32 0, !dbg !1829
  %t.0 = load i64, i64* %8, align 8, !dbg !1829
  %9 = getelementptr inbounds { i64, i64 }, { i64, i64 }* %self, i32 0, i32 1, !dbg !1829
  %t.1 = load i64, i64* %9, align 8, !dbg !1829, !range !1290, !noundef !23
  %10 = getelementptr inbounds { i64, i64 }, { i64, i64 }* %t.dbg.spill, i32 0, i32 0, !dbg !1829
  store i64 %t.0, i64* %10, align 8, !dbg !1829
  %11 = getelementptr inbounds { i64, i64 }, { i64, i64 }* %t.dbg.spill, i32 0, i32 1, !dbg !1829
  store i64 %t.1, i64* %11, align 8, !dbg !1829
  call void @llvm.dbg.declare(metadata { i64, i64 }* %t.dbg.spill, metadata !1818, metadata !DIExpression()), !dbg !1830
  %12 = bitcast %"core::result::Result<core::alloc::layout::Layout, alloc::collections::TryReserveErrorKind>"* %0 to %"core::result::Result<core::alloc::layout::Layout, alloc::collections::TryReserveErrorKind>::Ok"*, !dbg !1831
  %13 = getelementptr inbounds %"core::result::Result<core::alloc::layout::Layout, alloc::collections::TryReserveErrorKind>::Ok", %"core::result::Result<core::alloc::layout::Layout, alloc::collections::TryReserveErrorKind>::Ok"* %12, i32 0, i32 1, !dbg !1831
  %14 = getelementptr inbounds { i64, i64 }, { i64, i64 }* %13, i32 0, i32 0, !dbg !1831
  store i64 %t.0, i64* %14, align 8, !dbg !1831
  %15 = getelementptr inbounds { i64, i64 }, { i64, i64 }* %13, i32 0, i32 1, !dbg !1831
  store i64 %t.1, i64* %15, align 8, !dbg !1831
  %16 = bitcast %"core::result::Result<core::alloc::layout::Layout, alloc::collections::TryReserveErrorKind>"* %0 to i64*, !dbg !1831
  store i64 0, i64* %16, align 8, !dbg !1831
  br label %bb7, !dbg !1832

bb1:                                              ; preds = %start
  store i8 0, i8* %_11, align 1, !dbg !1833
  %17 = bitcast { %"core::alloc::layout::LayoutError" }* %_9 to %"core::alloc::layout::LayoutError"*, !dbg !1833
; call alloc::raw_vec::finish_grow::{{closure}}
  %18 = call { i64, i64 } @"_ZN5alloc7raw_vec11finish_grow28_$u7b$$u7b$closure$u7d$$u7d$17h85ee4a4416ba06c4E"(), !dbg !1833
  %_7.0 = extractvalue { i64, i64 } %18, 0, !dbg !1833
  %_7.1 = extractvalue { i64, i64 } %18, 1, !dbg !1833
  br label %bb4, !dbg !1833

bb4:                                              ; preds = %bb1
  %19 = bitcast %"core::result::Result<core::alloc::layout::Layout, alloc::collections::TryReserveErrorKind>"* %0 to %"core::result::Result<core::alloc::layout::Layout, alloc::collections::TryReserveErrorKind>::Err"*, !dbg !1834
  %20 = getelementptr inbounds %"core::result::Result<core::alloc::layout::Layout, alloc::collections::TryReserveErrorKind>::Err", %"core::result::Result<core::alloc::layout::Layout, alloc::collections::TryReserveErrorKind>::Err"* %19, i32 0, i32 1, !dbg !1834
  %21 = getelementptr inbounds { i64, i64 }, { i64, i64 }* %20, i32 0, i32 0, !dbg !1834
  store i64 %_7.0, i64* %21, align 8, !dbg !1834
  %22 = getelementptr inbounds { i64, i64 }, { i64, i64 }* %20, i32 0, i32 1, !dbg !1834
  store i64 %_7.1, i64* %22, align 8, !dbg !1834
  %23 = bitcast %"core::result::Result<core::alloc::layout::Layout, alloc::collections::TryReserveErrorKind>"* %0 to i64*, !dbg !1834
  store i64 1, i64* %23, align 8, !dbg !1834
  br label %bb7, !dbg !1835

bb7:                                              ; preds = %bb3, %bb4
  %24 = load i8, i8* %_11, align 1, !dbg !1836, !range !582, !noundef !23
  %25 = trunc i8 %24 to i1, !dbg !1836
  br i1 %25, label %bb6, label %bb5, !dbg !1836

bb5:                                              ; preds = %bb6, %bb7
  ret void, !dbg !1837

bb6:                                              ; preds = %bb7
  br label %bb5, !dbg !1836
}

; core::result::Result<T,E>::map_err
; Function Attrs: inlinehint nonlazybind uwtable
define internal void @"_ZN4core6result19Result$LT$T$C$E$GT$7map_err17hc3512111e253ca43E"(%"core::result::Result<core::ptr::non_null::NonNull<[u8]>, alloc::collections::TryReserveError>"* sret(%"core::result::Result<core::ptr::non_null::NonNull<[u8]>, alloc::collections::TryReserveError>") %0, i8* %1, i64 %2, i64* align 8 %op) unnamed_addr #0 !dbg !1838 {
start:
  %t.dbg.spill = alloca { i8*, i64 }, align 8
  %e.dbg.spill = alloca %"core::alloc::AllocError", align 1
  %op.dbg.spill = alloca i64*, align 8
  %_11 = alloca i8, align 1
  %_9 = alloca { %"core::alloc::AllocError" }, align 1
  %self = alloca { i8*, i64 }, align 8
  %3 = getelementptr inbounds { i8*, i64 }, { i8*, i64 }* %self, i32 0, i32 0
  store i8* %1, i8** %3, align 8
  %4 = getelementptr inbounds { i8*, i64 }, { i8*, i64 }* %self, i32 0, i32 1
  store i64 %2, i64* %4, align 8
  call void @llvm.dbg.declare(metadata { i8*, i64 }* %self, metadata !1884, metadata !DIExpression()), !dbg !1893
  store i64* %op, i64** %op.dbg.spill, align 8
  call void @llvm.dbg.declare(metadata i64** %op.dbg.spill, metadata !1885, metadata !DIExpression()), !dbg !1894
  call void @llvm.dbg.declare(metadata %"core::alloc::AllocError"* %e.dbg.spill, metadata !1888, metadata !DIExpression()), !dbg !1895
  store i8 1, i8* %_11, align 1, !dbg !1896
  %5 = bitcast { i8*, i64 }* %self to {}**, !dbg !1896
  %6 = load {}*, {}** %5, align 8, !dbg !1896
  %7 = icmp eq {}* %6, null, !dbg !1896
  %_3 = select i1 %7, i64 1, i64 0, !dbg !1896
  switch i64 %_3, label %bb2 [
    i64 0, label %bb3
    i64 1, label %bb1
  ], !dbg !1897

bb2:                                              ; preds = %start
  unreachable, !dbg !1896

bb3:                                              ; preds = %start
  %8 = getelementptr inbounds { i8*, i64 }, { i8*, i64 }* %self, i32 0, i32 0, !dbg !1898
  %t.0 = load i8*, i8** %8, align 8, !dbg !1898, !nonnull !23, !noundef !23
  %9 = getelementptr inbounds { i8*, i64 }, { i8*, i64 }* %self, i32 0, i32 1, !dbg !1898
  %t.1 = load i64, i64* %9, align 8, !dbg !1898
  %10 = getelementptr inbounds { i8*, i64 }, { i8*, i64 }* %t.dbg.spill, i32 0, i32 0, !dbg !1898
  store i8* %t.0, i8** %10, align 8, !dbg !1898
  %11 = getelementptr inbounds { i8*, i64 }, { i8*, i64 }* %t.dbg.spill, i32 0, i32 1, !dbg !1898
  store i64 %t.1, i64* %11, align 8, !dbg !1898
  call void @llvm.dbg.declare(metadata { i8*, i64 }* %t.dbg.spill, metadata !1886, metadata !DIExpression()), !dbg !1899
  %12 = bitcast %"core::result::Result<core::ptr::non_null::NonNull<[u8]>, alloc::collections::TryReserveError>"* %0 to %"core::result::Result<core::ptr::non_null::NonNull<[u8]>, alloc::collections::TryReserveError>::Ok"*, !dbg !1900
  %13 = getelementptr inbounds %"core::result::Result<core::ptr::non_null::NonNull<[u8]>, alloc::collections::TryReserveError>::Ok", %"core::result::Result<core::ptr::non_null::NonNull<[u8]>, alloc::collections::TryReserveError>::Ok"* %12, i32 0, i32 1, !dbg !1900
  %14 = getelementptr inbounds { i8*, i64 }, { i8*, i64 }* %13, i32 0, i32 0, !dbg !1900
  store i8* %t.0, i8** %14, align 8, !dbg !1900
  %15 = getelementptr inbounds { i8*, i64 }, { i8*, i64 }* %13, i32 0, i32 1, !dbg !1900
  store i64 %t.1, i64* %15, align 8, !dbg !1900
  %16 = bitcast %"core::result::Result<core::ptr::non_null::NonNull<[u8]>, alloc::collections::TryReserveError>"* %0 to i64*, !dbg !1900
  store i64 0, i64* %16, align 8, !dbg !1900
  br label %bb7, !dbg !1901

bb1:                                              ; preds = %start
  store i8 0, i8* %_11, align 1, !dbg !1902
  %17 = bitcast { %"core::alloc::AllocError" }* %_9 to %"core::alloc::AllocError"*, !dbg !1902
; call alloc::raw_vec::finish_grow::{{closure}}
  %18 = call { i64, i64 } @"_ZN5alloc7raw_vec11finish_grow28_$u7b$$u7b$closure$u7d$$u7d$17haf09d5e4bec9f614E"(i64* align 8 %op), !dbg !1902
  %_7.0 = extractvalue { i64, i64 } %18, 0, !dbg !1902
  %_7.1 = extractvalue { i64, i64 } %18, 1, !dbg !1902
  br label %bb4, !dbg !1902

bb4:                                              ; preds = %bb1
  %19 = bitcast %"core::result::Result<core::ptr::non_null::NonNull<[u8]>, alloc::collections::TryReserveError>"* %0 to %"core::result::Result<core::ptr::non_null::NonNull<[u8]>, alloc::collections::TryReserveError>::Err"*, !dbg !1903
  %20 = getelementptr inbounds %"core::result::Result<core::ptr::non_null::NonNull<[u8]>, alloc::collections::TryReserveError>::Err", %"core::result::Result<core::ptr::non_null::NonNull<[u8]>, alloc::collections::TryReserveError>::Err"* %19, i32 0, i32 1, !dbg !1903
  %21 = getelementptr inbounds { i64, i64 }, { i64, i64 }* %20, i32 0, i32 0, !dbg !1903
  store i64 %_7.0, i64* %21, align 8, !dbg !1903
  %22 = getelementptr inbounds { i64, i64 }, { i64, i64 }* %20, i32 0, i32 1, !dbg !1903
  store i64 %_7.1, i64* %22, align 8, !dbg !1903
  %23 = bitcast %"core::result::Result<core::ptr::non_null::NonNull<[u8]>, alloc::collections::TryReserveError>"* %0 to i64*, !dbg !1903
  store i64 1, i64* %23, align 8, !dbg !1903
  br label %bb7, !dbg !1904

bb7:                                              ; preds = %bb3, %bb4
  %24 = load i8, i8* %_11, align 1, !dbg !1905, !range !582, !noundef !23
  %25 = trunc i8 %24 to i1, !dbg !1905
  br i1 %25, label %bb6, label %bb5, !dbg !1905

bb5:                                              ; preds = %bb6, %bb7
  ret void, !dbg !1906

bb6:                                              ; preds = %bb7
  br label %bb5, !dbg !1905
}

; core::panicking::assert_failed
; Function Attrs: cold noreturn nonlazybind uwtable
define internal void @_ZN4core9panicking13assert_failed17h2667433552fdca02E(i8 %kind, i8* align 1 %0, i8* align 1 %1, %"core::option::Option<core::fmt::Arguments>"* %args, %"core::panic::location::Location"* align 8 %2) unnamed_addr #3 !dbg !1907 {
start:
  %kind.dbg.spill = alloca i8, align 1
  %_13 = alloca %"core::option::Option<core::fmt::Arguments>", align 8
  %right = alloca i8*, align 8
  %left = alloca i8*, align 8
  store i8* %0, i8** %left, align 8
  store i8* %1, i8** %right, align 8
  store i8 %kind, i8* %kind.dbg.spill, align 1
  call void @llvm.dbg.declare(metadata i8* %kind.dbg.spill, metadata !1925, metadata !DIExpression()), !dbg !1931
  call void @llvm.dbg.declare(metadata i8** %left, metadata !1926, metadata !DIExpression()), !dbg !1932
  call void @llvm.dbg.declare(metadata i8** %right, metadata !1927, metadata !DIExpression()), !dbg !1933
  call void @llvm.dbg.declare(metadata %"core::option::Option<core::fmt::Arguments>"* %args, metadata !1928, metadata !DIExpression()), !dbg !1934
  %_7.0 = bitcast i8** %left to {}*, !dbg !1935
  %_10.0 = bitcast i8** %right to {}*, !dbg !1936
  %3 = bitcast %"core::option::Option<core::fmt::Arguments>"* %_13 to i8*, !dbg !1937
  %4 = bitcast %"core::option::Option<core::fmt::Arguments>"* %args to i8*, !dbg !1937
  call void @llvm.memcpy.p0i8.p0i8.i64(i8* align 8 %3, i8* align 8 %4, i64 48, i1 false), !dbg !1937
; call core::panicking::assert_failed_inner
  call void @_ZN4core9panicking19assert_failed_inner17h2784388051aff910E(i8 %kind, {}* align 1 %_7.0, [3 x i64]* align 8 bitcast (<{ i8*, [16 x i8], i8* }>* @vtable.2 to [3 x i64]*), {}* align 1 %_10.0, [3 x i64]* align 8 bitcast (<{ i8*, [16 x i8], i8* }>* @vtable.2 to [3 x i64]*), %"core::option::Option<core::fmt::Arguments>"* %_13, %"core::panic::location::Location"* align 8 %2) #15, !dbg !1938
  unreachable, !dbg !1938
}

; core::panicking::assert_failed
; Function Attrs: cold noreturn nonlazybind uwtable
define internal void @_ZN4core9panicking13assert_failed17h5179245ed6beeeebE(i8 %kind, i32* align 4 %0, i32* align 4 %1, %"core::option::Option<core::fmt::Arguments>"* %args, %"core::panic::location::Location"* align 8 %2) unnamed_addr #3 !dbg !1939 {
start:
  %kind.dbg.spill = alloca i8, align 1
  %_13 = alloca %"core::option::Option<core::fmt::Arguments>", align 8
  %right = alloca i32*, align 8
  %left = alloca i32*, align 8
  store i32* %0, i32** %left, align 8
  store i32* %1, i32** %right, align 8
  store i8 %kind, i8* %kind.dbg.spill, align 1
  call void @llvm.dbg.declare(metadata i8* %kind.dbg.spill, metadata !1943, metadata !DIExpression()), !dbg !1949
  call void @llvm.dbg.declare(metadata i32** %left, metadata !1944, metadata !DIExpression()), !dbg !1950
  call void @llvm.dbg.declare(metadata i32** %right, metadata !1945, metadata !DIExpression()), !dbg !1951
  call void @llvm.dbg.declare(metadata %"core::option::Option<core::fmt::Arguments>"* %args, metadata !1946, metadata !DIExpression()), !dbg !1952
  %_7.0 = bitcast i32** %left to {}*, !dbg !1953
  %_10.0 = bitcast i32** %right to {}*, !dbg !1954
  %3 = bitcast %"core::option::Option<core::fmt::Arguments>"* %_13 to i8*, !dbg !1955
  %4 = bitcast %"core::option::Option<core::fmt::Arguments>"* %args to i8*, !dbg !1955
  call void @llvm.memcpy.p0i8.p0i8.i64(i8* align 8 %3, i8* align 8 %4, i64 48, i1 false), !dbg !1955
; call core::panicking::assert_failed_inner
  call void @_ZN4core9panicking19assert_failed_inner17h2784388051aff910E(i8 %kind, {}* align 1 %_7.0, [3 x i64]* align 8 bitcast (<{ i8*, [16 x i8], i8* }>* @vtable.1 to [3 x i64]*), {}* align 1 %_10.0, [3 x i64]* align 8 bitcast (<{ i8*, [16 x i8], i8* }>* @vtable.1 to [3 x i64]*), %"core::option::Option<core::fmt::Arguments>"* %_13, %"core::panic::location::Location"* align 8 %2) #15, !dbg !1956
  unreachable, !dbg !1956
}

; core::panicking::assert_failed
; Function Attrs: cold noreturn nonlazybind uwtable
define internal void @_ZN4core9panicking13assert_failed17h7946be7cdd9dfe58E(i8 %kind, i32* align 4 %0, i32* align 4 %1, %"core::option::Option<core::fmt::Arguments>"* %args, %"core::panic::location::Location"* align 8 %2) unnamed_addr #3 !dbg !1957 {
start:
  %kind.dbg.spill = alloca i8, align 1
  %_13 = alloca %"core::option::Option<core::fmt::Arguments>", align 8
  %right = alloca i32*, align 8
  %left = alloca i32*, align 8
  store i32* %0, i32** %left, align 8
  store i32* %1, i32** %right, align 8
  store i8 %kind, i8* %kind.dbg.spill, align 1
  call void @llvm.dbg.declare(metadata i8* %kind.dbg.spill, metadata !1961, metadata !DIExpression()), !dbg !1967
  call void @llvm.dbg.declare(metadata i32** %left, metadata !1962, metadata !DIExpression()), !dbg !1968
  call void @llvm.dbg.declare(metadata i32** %right, metadata !1963, metadata !DIExpression()), !dbg !1969
  call void @llvm.dbg.declare(metadata %"core::option::Option<core::fmt::Arguments>"* %args, metadata !1964, metadata !DIExpression()), !dbg !1970
  %_7.0 = bitcast i32** %left to {}*, !dbg !1971
  %_10.0 = bitcast i32** %right to {}*, !dbg !1972
  %3 = bitcast %"core::option::Option<core::fmt::Arguments>"* %_13 to i8*, !dbg !1973
  %4 = bitcast %"core::option::Option<core::fmt::Arguments>"* %args to i8*, !dbg !1973
  call void @llvm.memcpy.p0i8.p0i8.i64(i8* align 8 %3, i8* align 8 %4, i64 48, i1 false), !dbg !1973
; call core::panicking::assert_failed_inner
  call void @_ZN4core9panicking19assert_failed_inner17h2784388051aff910E(i8 %kind, {}* align 1 %_7.0, [3 x i64]* align 8 bitcast (<{ i8*, [16 x i8], i8* }>* @vtable.3 to [3 x i64]*), {}* align 1 %_10.0, [3 x i64]* align 8 bitcast (<{ i8*, [16 x i8], i8* }>* @vtable.3 to [3 x i64]*), %"core::option::Option<core::fmt::Arguments>"* %_13, %"core::panic::location::Location"* align 8 %2) #15, !dbg !1974
  unreachable, !dbg !1974
}

; core::panicking::assert_failed
; Function Attrs: cold noreturn nonlazybind uwtable
define internal void @_ZN4core9panicking13assert_failed17hb55f4f60b0e09d92E(i8 %kind, [2 x i32]* align 4 %0, [2 x i32]* align 4 %1, %"core::option::Option<core::fmt::Arguments>"* %args, %"core::panic::location::Location"* align 8 %2) unnamed_addr #3 !dbg !1975 {
start:
  %kind.dbg.spill = alloca i8, align 1
  %_13 = alloca %"core::option::Option<core::fmt::Arguments>", align 8
  %right = alloca [2 x i32]*, align 8
  %left = alloca [2 x i32]*, align 8
  store [2 x i32]* %0, [2 x i32]** %left, align 8
  store [2 x i32]* %1, [2 x i32]** %right, align 8
  store i8 %kind, i8* %kind.dbg.spill, align 1
  call void @llvm.dbg.declare(metadata i8* %kind.dbg.spill, metadata !1979, metadata !DIExpression()), !dbg !1985
  call void @llvm.dbg.declare(metadata [2 x i32]** %left, metadata !1980, metadata !DIExpression()), !dbg !1986
  call void @llvm.dbg.declare(metadata [2 x i32]** %right, metadata !1981, metadata !DIExpression()), !dbg !1987
  call void @llvm.dbg.declare(metadata %"core::option::Option<core::fmt::Arguments>"* %args, metadata !1982, metadata !DIExpression()), !dbg !1988
  %_7.0 = bitcast [2 x i32]** %left to {}*, !dbg !1989
  %_10.0 = bitcast [2 x i32]** %right to {}*, !dbg !1990
  %3 = bitcast %"core::option::Option<core::fmt::Arguments>"* %_13 to i8*, !dbg !1991
  %4 = bitcast %"core::option::Option<core::fmt::Arguments>"* %args to i8*, !dbg !1991
  call void @llvm.memcpy.p0i8.p0i8.i64(i8* align 8 %3, i8* align 8 %4, i64 48, i1 false), !dbg !1991
; call core::panicking::assert_failed_inner
  call void @_ZN4core9panicking19assert_failed_inner17h2784388051aff910E(i8 %kind, {}* align 1 %_7.0, [3 x i64]* align 8 bitcast (<{ i8*, [16 x i8], i8* }>* @vtable.4 to [3 x i64]*), {}* align 1 %_10.0, [3 x i64]* align 8 bitcast (<{ i8*, [16 x i8], i8* }>* @vtable.4 to [3 x i64]*), %"core::option::Option<core::fmt::Arguments>"* %_13, %"core::panic::location::Location"* align 8 %2) #15, !dbg !1992
  unreachable, !dbg !1992
}

; test::assert_test_result
; Function Attrs: nonlazybind uwtable
define internal void @_ZN4test18assert_test_result17he193e499d4e0e61dE() unnamed_addr #2 !dbg !1993 {
start:
  %0 = alloca %"core::fmt::Opaque"*, align 8
  %1 = alloca i1 (%"core::fmt::Opaque"*, %"core::fmt::Formatter"*)*, align 8
  %f.dbg.spill = alloca i1 (i32*, %"core::fmt::Formatter"*)*, align 8
  %x.dbg.spill1 = alloca i32*, align 8
  %x.dbg.spill = alloca i32*, align 8
  %right_val.dbg.spill = alloca i32*, align 8
  %left_val.dbg.spill = alloca i32*, align 8
  %self.dbg.spill = alloca i8*, align 8
  %result.dbg.spill = alloca {}, align 1
  %_30 = alloca { i8*, i64* }, align 8
  %_29 = alloca [1 x { i8*, i64* }], align 8
  %_22 = alloca %"core::fmt::Arguments", align 8
  %_21 = alloca %"core::option::Option<core::fmt::Arguments>", align 8
  %_5 = alloca { i32*, i32* }, align 8
  %self = alloca i8, align 1
  %code = alloca i32, align 4
  call void @llvm.dbg.declare(metadata {}* %result.dbg.spill, metadata !1997, metadata !DIExpression()), !dbg !2008
  call void @llvm.dbg.declare(metadata i32* %code, metadata !1998, metadata !DIExpression()), !dbg !2009
  call void @llvm.dbg.declare(metadata i8* %self, metadata !2010, metadata !DIExpression()), !dbg !2014
; call <() as std::process::Termination>::report
  %2 = call i8 @"_ZN54_$LT$$LP$$RP$$u20$as$u20$std..process..Termination$GT$6report17hc82e88fc6d5dfe88E"(), !dbg !2015
  store i8 %2, i8* %self, align 1, !dbg !2015
  br label %bb1, !dbg !2015

bb1:                                              ; preds = %start
  store i8* %self, i8** %self.dbg.spill, align 8, !dbg !2014
  call void @llvm.dbg.declare(metadata i8** %self.dbg.spill, metadata !2016, metadata !DIExpression()), !dbg !2020
  %_36 = load i8, i8* %self, align 1, !dbg !2020
  %3 = zext i8 %_36 to i32, !dbg !2020
  store i32 %3, i32* %code, align 4, !dbg !2020
  %4 = bitcast { i32*, i32* }* %_5 to i32**, !dbg !2022
  store i32* %code, i32** %4, align 8, !dbg !2022
  %5 = getelementptr inbounds { i32*, i32* }, { i32*, i32* }* %_5, i32 0, i32 1, !dbg !2022
  store i32* bitcast (<{ [4 x i8] }>* @alloc115 to i32*), i32** %5, align 8, !dbg !2022
  %6 = bitcast { i32*, i32* }* %_5 to i32**, !dbg !2022
  %left_val = load i32*, i32** %6, align 8, !dbg !2022, !nonnull !23, !align !446, !noundef !23
  store i32* %left_val, i32** %left_val.dbg.spill, align 8, !dbg !2022
  call void @llvm.dbg.declare(metadata i32** %left_val.dbg.spill, metadata !2000, metadata !DIExpression()), !dbg !2023
  %7 = getelementptr inbounds { i32*, i32* }, { i32*, i32* }* %_5, i32 0, i32 1, !dbg !2022
  %right_val = load i32*, i32** %7, align 8, !dbg !2022, !nonnull !23, !align !446, !noundef !23
  store i32* %right_val, i32** %right_val.dbg.spill, align 8, !dbg !2022
  call void @llvm.dbg.declare(metadata i32** %right_val.dbg.spill, metadata !2004, metadata !DIExpression()), !dbg !2023
  %_12 = load i32, i32* %left_val, align 4, !dbg !2023
  %_13 = load i32, i32* %right_val, align 4, !dbg !2023
  %_11 = icmp eq i32 %_12, %_13, !dbg !2023
  %_10 = xor i1 %_11, true, !dbg !2023
  br i1 %_10, label %bb2, label %bb4, !dbg !2023

bb4:                                              ; preds = %bb1
  ret void, !dbg !2024

bb2:                                              ; preds = %bb1
  store i32* %code, i32** %x.dbg.spill, align 8, !dbg !2025
  call void @llvm.dbg.declare(metadata i32** %x.dbg.spill, metadata !2026, metadata !DIExpression()), !dbg !2032
  store i32* %code, i32** %x.dbg.spill1, align 8, !dbg !2032
  call void @llvm.dbg.declare(metadata i32** %x.dbg.spill1, metadata !2034, metadata !DIExpression()), !dbg !2042
  store i1 (i32*, %"core::fmt::Formatter"*)* @"_ZN4core3fmt3num3imp52_$LT$impl$u20$core..fmt..Display$u20$for$u20$i32$GT$3fmt17h52a4838d0eaa2babE", i1 (i32*, %"core::fmt::Formatter"*)** %f.dbg.spill, align 8, !dbg !2032
  call void @llvm.dbg.declare(metadata i1 (i32*, %"core::fmt::Formatter"*)** %f.dbg.spill, metadata !2041, metadata !DIExpression()), !dbg !2042
  store i1 (%"core::fmt::Opaque"*, %"core::fmt::Formatter"*)* bitcast (i1 (i32*, %"core::fmt::Formatter"*)* @"_ZN4core3fmt3num3imp52_$LT$impl$u20$core..fmt..Display$u20$for$u20$i32$GT$3fmt17h52a4838d0eaa2babE" to i1 (%"core::fmt::Opaque"*, %"core::fmt::Formatter"*)*), i1 (%"core::fmt::Opaque"*, %"core::fmt::Formatter"*)** %1, align 8, !dbg !2042
  %_39 = load i1 (%"core::fmt::Opaque"*, %"core::fmt::Formatter"*)*, i1 (%"core::fmt::Opaque"*, %"core::fmt::Formatter"*)** %1, align 8, !dbg !2042, !nonnull !23, !noundef !23
  br label %bb5, !dbg !2042

bb5:                                              ; preds = %bb2
  %8 = bitcast i32* %code to %"core::fmt::Opaque"*, !dbg !2042
  store %"core::fmt::Opaque"* %8, %"core::fmt::Opaque"** %0, align 8, !dbg !2042
  %_41 = load %"core::fmt::Opaque"*, %"core::fmt::Opaque"** %0, align 8, !dbg !2042, !nonnull !23, !align !506, !noundef !23
  br label %bb6, !dbg !2042

bb6:                                              ; preds = %bb5
  %9 = bitcast { i8*, i64* }* %_30 to %"core::fmt::Opaque"**, !dbg !2042
  store %"core::fmt::Opaque"* %_41, %"core::fmt::Opaque"** %9, align 8, !dbg !2042
  %10 = getelementptr inbounds { i8*, i64* }, { i8*, i64* }* %_30, i32 0, i32 1, !dbg !2042
  %11 = bitcast i64** %10 to i1 (%"core::fmt::Opaque"*, %"core::fmt::Formatter"*)**, !dbg !2042
  store i1 (%"core::fmt::Opaque"*, %"core::fmt::Formatter"*)* %_39, i1 (%"core::fmt::Opaque"*, %"core::fmt::Formatter"*)** %11, align 8, !dbg !2042
  %12 = getelementptr inbounds { i8*, i64* }, { i8*, i64* }* %_30, i32 0, i32 0, !dbg !2025
  %13 = load i8*, i8** %12, align 8, !dbg !2025, !nonnull !23, !align !506, !noundef !23
  %14 = getelementptr inbounds { i8*, i64* }, { i8*, i64* }* %_30, i32 0, i32 1, !dbg !2025
  %15 = load i64*, i64** %14, align 8, !dbg !2025, !nonnull !23, !noundef !23
  %16 = getelementptr inbounds [1 x { i8*, i64* }], [1 x { i8*, i64* }]* %_29, i64 0, i64 0, !dbg !2025
  %17 = getelementptr inbounds { i8*, i64* }, { i8*, i64* }* %16, i32 0, i32 0, !dbg !2025
  store i8* %13, i8** %17, align 8, !dbg !2025
  %18 = getelementptr inbounds { i8*, i64* }, { i8*, i64* }* %16, i32 0, i32 1, !dbg !2025
  store i64* %15, i64** %18, align 8, !dbg !2025
  %_26.0 = bitcast [1 x { i8*, i64* }]* %_29 to [0 x { i8*, i64* }]*, !dbg !2025
; call core::fmt::Arguments::new_v1
  call void @_ZN4core3fmt9Arguments6new_v117h91724e5e2039d987E(%"core::fmt::Arguments"* sret(%"core::fmt::Arguments") %_22, [0 x { [0 x i8]*, i64 }]* align 8 bitcast (<{ i8*, [8 x i8], i8*, [8 x i8] }>* @alloc118 to [0 x { [0 x i8]*, i64 }]*), i64 2, [0 x { i8*, i64* }]* align 8 %_26.0, i64 1), !dbg !2025
  br label %bb3, !dbg !2025

bb3:                                              ; preds = %bb6
  %19 = bitcast %"core::option::Option<core::fmt::Arguments>"* %_21 to %"core::option::Option<core::fmt::Arguments>::Some"*, !dbg !2025
  %20 = bitcast %"core::option::Option<core::fmt::Arguments>::Some"* %19 to %"core::fmt::Arguments"*, !dbg !2025
  %21 = bitcast %"core::fmt::Arguments"* %20 to i8*, !dbg !2025
  %22 = bitcast %"core::fmt::Arguments"* %_22 to i8*, !dbg !2025
  call void @llvm.memcpy.p0i8.p0i8.i64(i8* align 8 %21, i8* align 8 %22, i64 48, i1 false), !dbg !2025
; call core::panicking::assert_failed
  call void @_ZN4core9panicking13assert_failed17h5179245ed6beeeebE(i8 0, i32* align 4 %left_val, i32* align 4 %right_val, %"core::option::Option<core::fmt::Arguments>"* %_21, %"core::panic::location::Location"* align 8 bitcast (<{ i8*, [16 x i8] }>* @alloc443 to %"core::panic::location::Location"*)) #15, !dbg !2025
  unreachable, !dbg !2025
}

; <T as core::convert::From<T>>::from
; Function Attrs: nonlazybind uwtable
define internal void @"_ZN50_$LT$T$u20$as$u20$core..convert..From$LT$T$GT$$GT$4from17h1bf1f66310464536E"() unnamed_addr #2 !dbg !2044 {
start:
  %t.dbg.spill = alloca %"core::alloc::layout::LayoutError", align 1
  call void @llvm.dbg.declare(metadata %"core::alloc::layout::LayoutError"* %t.dbg.spill, metadata !2050, metadata !DIExpression()), !dbg !2053
  ret void, !dbg !2054
}

; <T as core::convert::From<T>>::from
; Function Attrs: nonlazybind uwtable
define internal { i64, i64 } @"_ZN50_$LT$T$u20$as$u20$core..convert..From$LT$T$GT$$GT$4from17h2b07192e84e96dafE"(i64 %t.0, i64 %t.1) unnamed_addr #2 !dbg !2055 {
start:
  %t.dbg.spill = alloca { i64, i64 }, align 8
  %0 = getelementptr inbounds { i64, i64 }, { i64, i64 }* %t.dbg.spill, i32 0, i32 0
  store i64 %t.0, i64* %0, align 8
  %1 = getelementptr inbounds { i64, i64 }, { i64, i64 }* %t.dbg.spill, i32 0, i32 1
  store i64 %t.1, i64* %1, align 8
  call void @llvm.dbg.declare(metadata { i64, i64 }* %t.dbg.spill, metadata !2059, metadata !DIExpression()), !dbg !2062
  %2 = insertvalue { i64, i64 } undef, i64 %t.0, 0, !dbg !2063
  %3 = insertvalue { i64, i64 } %2, i64 %t.1, 1, !dbg !2063
  ret { i64, i64 } %3, !dbg !2063
}

; <T as core::convert::From<T>>::from
; Function Attrs: nonlazybind uwtable
define internal void @"_ZN50_$LT$T$u20$as$u20$core..convert..From$LT$T$GT$$GT$4from17h45d528083251d0c9E"() unnamed_addr #2 !dbg !2064 {
start:
  %t.dbg.spill = alloca %"core::alloc::AllocError", align 1
  call void @llvm.dbg.declare(metadata %"core::alloc::AllocError"* %t.dbg.spill, metadata !2068, metadata !DIExpression()), !dbg !2071
  ret void, !dbg !2072
}

; <T as core::convert::Into<U>>::into
; Function Attrs: nonlazybind uwtable
define internal { i64, i64 } @"_ZN50_$LT$T$u20$as$u20$core..convert..Into$LT$U$GT$$GT$4into17h64518824e4990ab0E"(i64 %self.0, i64 %self.1) unnamed_addr #2 !dbg !2073 {
start:
  %self.dbg.spill = alloca { i64, i64 }, align 8
  %0 = getelementptr inbounds { i64, i64 }, { i64, i64 }* %self.dbg.spill, i32 0, i32 0
  store i64 %self.0, i64* %0, align 8
  %1 = getelementptr inbounds { i64, i64 }, { i64, i64 }* %self.dbg.spill, i32 0, i32 1
  store i64 %self.1, i64* %1, align 8
  call void @llvm.dbg.declare(metadata { i64, i64 }* %self.dbg.spill, metadata !2076, metadata !DIExpression()), !dbg !2080
; call <alloc::collections::TryReserveError as core::convert::From<alloc::collections::TryReserveErrorKind>>::from
  %2 = call { i64, i64 } @"_ZN122_$LT$alloc..collections..TryReserveError$u20$as$u20$core..convert..From$LT$alloc..collections..TryReserveErrorKind$GT$$GT$4from17hc4cd94cd5fec9894E"(i64 %self.0, i64 %self.1), !dbg !2081
  %3 = extractvalue { i64, i64 } %2, 0, !dbg !2081
  %4 = extractvalue { i64, i64 } %2, 1, !dbg !2081
  br label %bb1, !dbg !2081

bb1:                                              ; preds = %start
  %5 = insertvalue { i64, i64 } undef, i64 %3, 0, !dbg !2082
  %6 = insertvalue { i64, i64 } %5, i64 %4, 1, !dbg !2082
  ret { i64, i64 } %6, !dbg !2082
}

; <T as core::convert::Into<U>>::into
; Function Attrs: nonlazybind uwtable
define internal i8* @"_ZN50_$LT$T$u20$as$u20$core..convert..Into$LT$U$GT$$GT$4into17hb680b17b26dd4c2bE"(i8* %self) unnamed_addr #2 !dbg !2083 {
start:
  %self.dbg.spill = alloca i8*, align 8
  store i8* %self, i8** %self.dbg.spill, align 8
  call void @llvm.dbg.declare(metadata i8** %self.dbg.spill, metadata !2085, metadata !DIExpression()), !dbg !2089
; call <core::ptr::non_null::NonNull<T> as core::convert::From<core::ptr::unique::Unique<T>>>::from
  %0 = call i8* @"_ZN119_$LT$core..ptr..non_null..NonNull$LT$T$GT$$u20$as$u20$core..convert..From$LT$core..ptr..unique..Unique$LT$T$GT$$GT$$GT$4from17h39c8e5f5acb73393E"(i8* %self), !dbg !2090
  br label %bb1, !dbg !2090

bb1:                                              ; preds = %start
  ret i8* %0, !dbg !2091
}

; <i32 as alloc::vec::is_zero::IsZero>::is_zero
; Function Attrs: inlinehint nonlazybind uwtable
define internal zeroext i1 @"_ZN51_$LT$i32$u20$as$u20$alloc..vec..is_zero..IsZero$GT$7is_zero17h62226bc174662b0aE"(i32* align 4 %self) unnamed_addr #0 !dbg !2092 {
start:
  %self.dbg.spill = alloca i32*, align 8
  %_3 = alloca i32, align 4
  store i32* %self, i32** %self.dbg.spill, align 8
  call void @llvm.dbg.declare(metadata i32** %self.dbg.spill, metadata !2099, metadata !DIExpression()), !dbg !2100
  %_4 = load i32, i32* %self, align 4, !dbg !2101
  store i32 %_4, i32* %_3, align 4, !dbg !2102
  %0 = load i32, i32* %_3, align 4, !dbg !2102
; call <i32 as alloc::vec::is_zero::IsZero>::is_zero::{{closure}}
  %1 = call zeroext i1 @"_ZN51_$LT$i32$u20$as$u20$alloc..vec..is_zero..IsZero$GT$7is_zero28_$u7b$$u7b$closure$u7d$$u7d$17hafb7477db7bfbec0E"(%"[closure@<i32 as alloc::vec::is_zero::IsZero>::is_zero::{closure#0}]"* align 1 bitcast (<{}>* @alloc284 to %"[closure@<i32 as alloc::vec::is_zero::IsZero>::is_zero::{closure#0}]"*), i32 %0), !dbg !2102
  br label %bb1, !dbg !2102

bb1:                                              ; preds = %start
  ret i1 %1, !dbg !2103
}

; <i32 as alloc::vec::is_zero::IsZero>::is_zero::{{closure}}
; Function Attrs: inlinehint nonlazybind uwtable
define internal zeroext i1 @"_ZN51_$LT$i32$u20$as$u20$alloc..vec..is_zero..IsZero$GT$7is_zero28_$u7b$$u7b$closure$u7d$$u7d$17hafb7477db7bfbec0E"(%"[closure@<i32 as alloc::vec::is_zero::IsZero>::is_zero::{closure#0}]"* align 1 %_1, i32 %x) unnamed_addr #0 !dbg !2104 {
start:
  %x.dbg.spill = alloca i32, align 4
  %_1.dbg.spill = alloca %"[closure@<i32 as alloc::vec::is_zero::IsZero>::is_zero::{closure#0}]"*, align 8
  store %"[closure@<i32 as alloc::vec::is_zero::IsZero>::is_zero::{closure#0}]"* %_1, %"[closure@<i32 as alloc::vec::is_zero::IsZero>::is_zero::{closure#0}]"** %_1.dbg.spill, align 8
  call void @llvm.dbg.declare(metadata %"[closure@<i32 as alloc::vec::is_zero::IsZero>::is_zero::{closure#0}]"** %_1.dbg.spill, metadata !2112, metadata !DIExpression()), !dbg !2113
  store i32 %x, i32* %x.dbg.spill, align 4
  call void @llvm.dbg.declare(metadata i32* %x.dbg.spill, metadata !2111, metadata !DIExpression()), !dbg !2114
  %0 = icmp eq i32 %x, 0, !dbg !2115
  ret i1 %0, !dbg !2116
}

; <() as std::process::Termination>::report
; Function Attrs: inlinehint nonlazybind uwtable
define internal i8 @"_ZN54_$LT$$LP$$RP$$u20$as$u20$std..process..Termination$GT$6report17hc82e88fc6d5dfe88E"() unnamed_addr #0 !dbg !2117 {
start:
  %self.dbg.spill = alloca {}, align 1
  call void @llvm.dbg.declare(metadata {}* %self.dbg.spill, metadata !2122, metadata !DIExpression()), !dbg !2123
  ret i8 0, !dbg !2124
}

; alloc::vec::Vec<T,A>::as_mut_ptr
; Function Attrs: inlinehint nonlazybind uwtable
define internal i32* @"_ZN5alloc3vec16Vec$LT$T$C$A$GT$10as_mut_ptr17h79b40160d0f7335fE"(%"alloc::vec::Vec<i32>"* align 8 %self) unnamed_addr #0 !dbg !2125 {
start:
  %0 = alloca i8, align 1
  %other.dbg.spill = alloca i8*, align 8
  %data_address.dbg.spill = alloca {}*, align 8
  %1 = alloca {}*, align 8
  %self.dbg.spill8 = alloca i8*, align 8
  %self.dbg.spill6 = alloca i32*, align 8
  %ptr.dbg.spill = alloca i32*, align 8
  %self.dbg.spill5 = alloca i32*, align 8
  %self.dbg.spill4 = alloca i32*, align 8
  %self.dbg.spill2 = alloca { i32*, i64 }*, align 8
  %metadata.dbg.spill = alloca {}, align 1
  %self.dbg.spill = alloca %"alloc::vec::Vec<i32>"*, align 8
  %_18 = alloca %"core::ptr::metadata::PtrComponents<u8>", align 8
  %_17 = alloca %"core::ptr::metadata::PtrRepr<u8>", align 8
  store %"alloc::vec::Vec<i32>"* %self, %"alloc::vec::Vec<i32>"** %self.dbg.spill, align 8
  call void @llvm.dbg.declare(metadata %"alloc::vec::Vec<i32>"** %self.dbg.spill, metadata !2131, metadata !DIExpression()), !dbg !2134
  call void @llvm.dbg.declare(metadata {}* %metadata.dbg.spill, metadata !2135, metadata !DIExpression()), !dbg !2140
  %self1 = bitcast %"alloc::vec::Vec<i32>"* %self to { i32*, i64 }*, !dbg !2151
  store { i32*, i64 }* %self1, { i32*, i64 }** %self.dbg.spill2, align 8, !dbg !2151
  call void @llvm.dbg.declare(metadata { i32*, i64 }** %self.dbg.spill2, metadata !2152, metadata !DIExpression()), !dbg !2160
  %2 = bitcast { i32*, i64 }* %self1 to i32**, !dbg !2160
  %self3 = load i32*, i32** %2, align 8, !dbg !2160, !nonnull !23, !noundef !23
  store i32* %self3, i32** %self.dbg.spill4, align 8, !dbg !2160
  call void @llvm.dbg.declare(metadata i32** %self.dbg.spill4, metadata !2161, metadata !DIExpression()), !dbg !2167
  store i32* %self3, i32** %self.dbg.spill5, align 8, !dbg !2167
  call void @llvm.dbg.declare(metadata i32** %self.dbg.spill5, metadata !2169, metadata !DIExpression()), !dbg !2175
  store i32* %self3, i32** %ptr.dbg.spill, align 8, !dbg !2175
  call void @llvm.dbg.declare(metadata i32** %ptr.dbg.spill, metadata !2132, metadata !DIExpression()), !dbg !2177
  store i32* %self3, i32** %self.dbg.spill6, align 8, !dbg !2150
  call void @llvm.dbg.declare(metadata i32** %self.dbg.spill6, metadata !2148, metadata !DIExpression()), !dbg !2178
  %self7 = bitcast i32* %self3 to i8*, !dbg !2178
  store i8* %self7, i8** %self.dbg.spill8, align 8, !dbg !2178
  call void @llvm.dbg.declare(metadata i8** %self.dbg.spill8, metadata !2179, metadata !DIExpression()), !dbg !2184
  %3 = bitcast {}** %1 to i64*, !dbg !2186
  store i64 0, i64* %3, align 8, !dbg !2186
  %data_address = load {}*, {}** %1, align 8, !dbg !2186
  store {}* %data_address, {}** %data_address.dbg.spill, align 8, !dbg !2186
  call void @llvm.dbg.declare(metadata {}** %data_address.dbg.spill, metadata !2139, metadata !DIExpression()), !dbg !2140
  br label %bb2, !dbg !2186

bb2:                                              ; preds = %start
  %4 = bitcast %"core::ptr::metadata::PtrComponents<u8>"* %_18 to {}**, !dbg !2140
  store {}* %data_address, {}** %4, align 8, !dbg !2140
  %5 = bitcast %"core::ptr::metadata::PtrRepr<u8>"* %_17 to %"core::ptr::metadata::PtrComponents<u8>"*, !dbg !2140
  %6 = bitcast %"core::ptr::metadata::PtrComponents<u8>"* %5 to i8*, !dbg !2140
  %7 = bitcast %"core::ptr::metadata::PtrComponents<u8>"* %_18 to i8*, !dbg !2140
  call void @llvm.memcpy.p0i8.p0i8.i64(i8* align 8 %6, i8* align 8 %7, i64 8, i1 false), !dbg !2140
  %8 = bitcast %"core::ptr::metadata::PtrRepr<u8>"* %_17 to i8**, !dbg !2140
  %other = load i8*, i8** %8, align 8, !dbg !2140
  store i8* %other, i8** %other.dbg.spill, align 8, !dbg !2140
  call void @llvm.dbg.declare(metadata i8** %other.dbg.spill, metadata !2183, metadata !DIExpression()), !dbg !2184
  %9 = icmp eq i8* %self7, %other, !dbg !2184
  %10 = zext i1 %9 to i8, !dbg !2184
  store i8 %10, i8* %0, align 1, !dbg !2184
  %11 = load i8, i8* %0, align 1, !dbg !2184, !range !582, !noundef !23
  %_5 = trunc i8 %11 to i1, !dbg !2184
  br label %bb3, !dbg !2184

bb3:                                              ; preds = %bb2
  %_4 = xor i1 %_5, true, !dbg !2192
  call void @llvm.assume(i1 %_4), !dbg !2193
  br label %bb1, !dbg !2193

bb1:                                              ; preds = %bb3
  ret i32* %self3, !dbg !2194
}

; alloc::vec::Vec<T,A>::extend_with
; Function Attrs: nonlazybind uwtable
define internal void @"_ZN5alloc3vec16Vec$LT$T$C$A$GT$11extend_with17hede6bdad7b718868E"(%"alloc::vec::Vec<i32>"* align 8 %self, i64 %n, i32 %0) unnamed_addr #2 personality i32 (i32, i32, i64, %"unwind::libunwind::_Unwind_Exception"*, %"unwind::libunwind::_Unwind_Context"*)* @rust_eh_personality !dbg !2195 {
start:
  %self.dbg.spill15 = alloca { i64*, i64 }*, align 8
  %dst.dbg.spill14 = alloca i32*, align 8
  %self.dbg.spill12 = alloca { i64*, i64 }*, align 8
  %1 = alloca i32*, align 8
  %self.dbg.spill11 = alloca i32*, align 8
  %dst.dbg.spill = alloca i32*, align 8
  %self.dbg.spill8 = alloca { i64, i64 }*, align 8
  %len.dbg.spill = alloca i64*, align 8
  %2 = alloca i32*, align 8
  %count.dbg.spill7 = alloca i64, align 8
  %self.dbg.spill6 = alloca i32*, align 8
  %count.dbg.spill = alloca i64, align 8
  %self.dbg.spill5 = alloca %"alloc::vec::Vec<i32>"*, align 8
  %self.dbg.spill4 = alloca i32*, align 8
  %3 = alloca { i8*, i32 }, align 8
  %n.dbg.spill = alloca i64, align 8
  %self.dbg.spill = alloca %"alloc::vec::Vec<i32>"*, align 8
  %_35 = alloca i8, align 1
  %src2 = alloca i32, align 4
  %src = alloca i32, align 4
  %_19 = alloca { i64, i64 }, align 8
  %iter = alloca { i64, i64 }, align 8
  %self1 = alloca { i64, i64 }, align 8
  %local_len = alloca { i64*, i64 }, align 8
  %ptr = alloca i32*, align 8
  %value = alloca i32, align 4
  store i32 %0, i32* %value, align 4
  store %"alloc::vec::Vec<i32>"* %self, %"alloc::vec::Vec<i32>"** %self.dbg.spill, align 8
  call void @llvm.dbg.declare(metadata %"alloc::vec::Vec<i32>"** %self.dbg.spill, metadata !2202, metadata !DIExpression()), !dbg !2213
  store i64 %n, i64* %n.dbg.spill, align 8
  call void @llvm.dbg.declare(metadata i64* %n.dbg.spill, metadata !2203, metadata !DIExpression()), !dbg !2214
  call void @llvm.dbg.declare(metadata i32* %value, metadata !2204, metadata !DIExpression()), !dbg !2215
  call void @llvm.dbg.declare(metadata i32** %ptr, metadata !2205, metadata !DIExpression()), !dbg !2216
  call void @llvm.dbg.declare(metadata { i64*, i64 }* %local_len, metadata !2207, metadata !DIExpression()), !dbg !2217
  call void @llvm.dbg.declare(metadata { i64, i64 }* %self1, metadata !2218, metadata !DIExpression()), !dbg !2230
  call void @llvm.dbg.declare(metadata { i64, i64 }* %iter, metadata !2209, metadata !DIExpression()), !dbg !2232
  call void @llvm.dbg.declare(metadata i32* %src, metadata !2233, metadata !DIExpression()), !dbg !2240
  call void @llvm.dbg.declare(metadata i32* %src2, metadata !2242, metadata !DIExpression()), !dbg !2247
  store i8 1, i8* %_35, align 1, !dbg !2249
; invoke alloc::vec::Vec<T,A>::reserve
  invoke void @"_ZN5alloc3vec16Vec$LT$T$C$A$GT$7reserve17h52ed96e7b828c642E"(%"alloc::vec::Vec<i32>"* align 8 %self, i64 %n)
          to label %bb1 unwind label %cleanup, !dbg !2249

bb17:                                             ; preds = %bb13, %cleanup
  %4 = load i8, i8* %_35, align 1, !dbg !2250, !range !582, !noundef !23
  %5 = trunc i8 %4 to i1, !dbg !2250
  br i1 %5, label %bb16, label %bb14, !dbg !2250

cleanup:                                          ; preds = %bb10, %bb1, %start
  %6 = landingpad { i8*, i32 }
          cleanup
  %7 = extractvalue { i8*, i32 } %6, 0
  %8 = extractvalue { i8*, i32 } %6, 1
  %9 = getelementptr inbounds { i8*, i32 }, { i8*, i32 }* %3, i32 0, i32 0
  store i8* %7, i8** %9, align 8
  %10 = getelementptr inbounds { i8*, i32 }, { i8*, i32 }* %3, i32 0, i32 1
  store i32 %8, i32* %10, align 8
  br label %bb17

bb1:                                              ; preds = %start
; invoke alloc::vec::Vec<T,A>::as_mut_ptr
  %self3 = invoke i32* @"_ZN5alloc3vec16Vec$LT$T$C$A$GT$10as_mut_ptr17h79b40160d0f7335fE"(%"alloc::vec::Vec<i32>"* align 8 %self)
          to label %bb2 unwind label %cleanup, !dbg !2251

bb2:                                              ; preds = %bb1
  store i32* %self3, i32** %self.dbg.spill4, align 8, !dbg !2251
  call void @llvm.dbg.declare(metadata i32** %self.dbg.spill4, metadata !2252, metadata !DIExpression()), !dbg !2259
  store %"alloc::vec::Vec<i32>"* %self, %"alloc::vec::Vec<i32>"** %self.dbg.spill5, align 8, !dbg !2260
  call void @llvm.dbg.declare(metadata %"alloc::vec::Vec<i32>"** %self.dbg.spill5, metadata !2261, metadata !DIExpression()), !dbg !2267
  %11 = getelementptr inbounds %"alloc::vec::Vec<i32>", %"alloc::vec::Vec<i32>"* %self, i32 0, i32 1, !dbg !2267
  %count = load i64, i64* %11, align 8, !dbg !2267
  store i64 %count, i64* %count.dbg.spill, align 8, !dbg !2267
  call void @llvm.dbg.declare(metadata i64* %count.dbg.spill, metadata !2258, metadata !DIExpression()), !dbg !2259
  store i32* %self3, i32** %self.dbg.spill6, align 8, !dbg !2259
  call void @llvm.dbg.declare(metadata i32** %self.dbg.spill6, metadata !2268, metadata !DIExpression()), !dbg !2275
  store i64 %count, i64* %count.dbg.spill7, align 8, !dbg !2259
  call void @llvm.dbg.declare(metadata i64* %count.dbg.spill7, metadata !2274, metadata !DIExpression()), !dbg !2275
  %12 = getelementptr inbounds i32, i32* %self3, i64 %count, !dbg !2275
  store i32* %12, i32** %2, align 8, !dbg !2275
  %_39 = load i32*, i32** %2, align 8, !dbg !2275
  br label %bb18, !dbg !2275

bb18:                                             ; preds = %bb2
  store i32* %_39, i32** %ptr, align 8, !dbg !2275
  %_14 = getelementptr inbounds %"alloc::vec::Vec<i32>", %"alloc::vec::Vec<i32>"* %self, i32 0, i32 1, !dbg !2277
  store i64* %_14, i64** %len.dbg.spill, align 8, !dbg !2277
  call void @llvm.dbg.declare(metadata i64** %len.dbg.spill, metadata !2278, metadata !DIExpression()), !dbg !2285
  %_43 = load i64, i64* %_14, align 8, !dbg !2285
  %13 = bitcast { i64*, i64 }* %local_len to i64**, !dbg !2285
  store i64* %_14, i64** %13, align 8, !dbg !2285
  %14 = getelementptr inbounds { i64*, i64 }, { i64*, i64 }* %local_len, i32 0, i32 1, !dbg !2285
  store i64 %_43, i64* %14, align 8, !dbg !2285
  %15 = bitcast { i64, i64 }* %self1 to i64*, !dbg !2231
  store i64 1, i64* %15, align 8, !dbg !2231
  %16 = getelementptr inbounds { i64, i64 }, { i64, i64 }* %self1, i32 0, i32 1, !dbg !2231
  store i64 %n, i64* %16, align 8, !dbg !2231
  %17 = getelementptr inbounds { i64, i64 }, { i64, i64 }* %self1, i32 0, i32 0, !dbg !2230
  %_15.0 = load i64, i64* %17, align 8, !dbg !2230
  %18 = getelementptr inbounds { i64, i64 }, { i64, i64 }* %self1, i32 0, i32 1, !dbg !2230
  %_15.1 = load i64, i64* %18, align 8, !dbg !2230
  %19 = getelementptr inbounds { i64, i64 }, { i64, i64 }* %iter, i32 0, i32 0, !dbg !2231
  store i64 %_15.0, i64* %19, align 8, !dbg !2231
  %20 = getelementptr inbounds { i64, i64 }, { i64, i64 }* %iter, i32 0, i32 1, !dbg !2231
  store i64 %_15.1, i64* %20, align 8, !dbg !2231
  br label %bb3, !dbg !2287

bb3:                                              ; preds = %bb20, %bb18
  store { i64, i64 }* %iter, { i64, i64 }** %self.dbg.spill8, align 8, !dbg !2232
  call void @llvm.dbg.declare(metadata { i64, i64 }** %self.dbg.spill8, metadata !2288, metadata !DIExpression()), !dbg !2292
; invoke <core::ops::range::Range<T> as core::iter::range::RangeIteratorImpl>::spec_next
  %21 = invoke { i64, i64 } @"_ZN89_$LT$core..ops..range..Range$LT$T$GT$$u20$as$u20$core..iter..range..RangeIteratorImpl$GT$9spec_next17h728e80b1bfdf1381E"({ i64, i64 }* align 8 %iter)
          to label %bb19 unwind label %cleanup9, !dbg !2292

bb13:                                             ; preds = %cleanup9
; invoke core::ptr::drop_in_place<alloc::vec::set_len_on_drop::SetLenOnDrop>
  invoke void @"_ZN4core3ptr62drop_in_place$LT$alloc..vec..set_len_on_drop..SetLenOnDrop$GT$17h0df015e9a232d0deE"({ i64*, i64 }* %local_len) #16
          to label %bb17 unwind label %abort, !dbg !2293

cleanup9:                                         ; preds = %bb8, %bb4, %bb3
  %22 = landingpad { i8*, i32 }
          cleanup
  %23 = extractvalue { i8*, i32 } %22, 0
  %24 = extractvalue { i8*, i32 } %22, 1
  %25 = getelementptr inbounds { i8*, i32 }, { i8*, i32 }* %3, i32 0, i32 0
  store i8* %23, i8** %25, align 8
  %26 = getelementptr inbounds { i8*, i32 }, { i8*, i32 }* %3, i32 0, i32 1
  store i32 %24, i32* %26, align 8
  br label %bb13

bb19:                                             ; preds = %bb3
  store { i64, i64 } %21, { i64, i64 }* %_19, align 8, !dbg !2292
  %27 = bitcast { i64, i64 }* %_19 to i64*, !dbg !2232
  %_22 = load i64, i64* %27, align 8, !dbg !2232, !range !932, !noundef !23
  switch i64 %_22, label %bb5 [
    i64 0, label %bb6
    i64 1, label %bb4
  ], !dbg !2232

bb5:                                              ; preds = %bb19
  unreachable, !dbg !2232

bb6:                                              ; preds = %bb19
  %_29 = icmp ugt i64 %n, 0, !dbg !2294
  br i1 %_29, label %bb8, label %bb10, !dbg !2294

bb4:                                              ; preds = %bb19
  %dst = load i32*, i32** %ptr, align 8, !dbg !2295
  store i32* %dst, i32** %dst.dbg.spill, align 8, !dbg !2295
  call void @llvm.dbg.declare(metadata i32** %dst.dbg.spill, metadata !2239, metadata !DIExpression()), !dbg !2240
; invoke <alloc::vec::ExtendElement<T> as alloc::vec::ExtendWith<T>>::next
  %28 = invoke i32 @"_ZN86_$LT$alloc..vec..ExtendElement$LT$T$GT$$u20$as$u20$alloc..vec..ExtendWith$LT$T$GT$$GT$4next17h9f98ea69187512e2E"(i32* align 4 %value)
          to label %bb7 unwind label %cleanup9, !dbg !2296

bb7:                                              ; preds = %bb4
  store i32 %28, i32* %src, align 4, !dbg !2296
  %29 = bitcast i32* %dst to i8*, !dbg !2240
  %30 = bitcast i32* %src to i8*, !dbg !2240
  call void @llvm.memcpy.p0i8.p0i8.i64(i8* align 4 %29, i8* align 4 %30, i64 4, i1 false), !dbg !2240
  %self10 = load i32*, i32** %ptr, align 8, !dbg !2297
  store i32* %self10, i32** %self.dbg.spill11, align 8, !dbg !2297
  call void @llvm.dbg.declare(metadata i32** %self.dbg.spill11, metadata !2298, metadata !DIExpression()), !dbg !2303
  %31 = getelementptr inbounds i32, i32* %self10, i64 1, !dbg !2303
  store i32* %31, i32** %1, align 8, !dbg !2303
  %_50 = load i32*, i32** %1, align 8, !dbg !2303
  br label %bb20, !dbg !2303

bb20:                                             ; preds = %bb7
  store i32* %_50, i32** %ptr, align 8, !dbg !2304
  store { i64*, i64 }* %local_len, { i64*, i64 }** %self.dbg.spill12, align 8, !dbg !2305
  call void @llvm.dbg.declare(metadata { i64*, i64 }** %self.dbg.spill12, metadata !2306, metadata !DIExpression()), !dbg !2314
  %32 = getelementptr inbounds { i64*, i64 }, { i64*, i64 }* %local_len, i32 0, i32 1, !dbg !2314
  %33 = getelementptr inbounds { i64*, i64 }, { i64*, i64 }* %local_len, i32 0, i32 1, !dbg !2314
  %34 = load i64, i64* %33, align 8, !dbg !2314
  %35 = add i64 %34, 1, !dbg !2314
  store i64 %35, i64* %32, align 8, !dbg !2314
  br label %bb3, !dbg !2287

bb10:                                             ; preds = %bb9, %bb6
; invoke core::ptr::drop_in_place<alloc::vec::set_len_on_drop::SetLenOnDrop>
  invoke void @"_ZN4core3ptr62drop_in_place$LT$alloc..vec..set_len_on_drop..SetLenOnDrop$GT$17h0df015e9a232d0deE"({ i64*, i64 }* %local_len)
          to label %bb11 unwind label %cleanup, !dbg !2293

bb8:                                              ; preds = %bb6
  %dst13 = load i32*, i32** %ptr, align 8, !dbg !2315
  store i32* %dst13, i32** %dst.dbg.spill14, align 8, !dbg !2315
  call void @llvm.dbg.declare(metadata i32** %dst.dbg.spill14, metadata !2246, metadata !DIExpression()), !dbg !2247
  store i8 0, i8* %_35, align 1, !dbg !2316
  %_33 = load i32, i32* %value, align 4, !dbg !2316
; invoke <alloc::vec::ExtendElement<T> as alloc::vec::ExtendWith<T>>::last
  %36 = invoke i32 @"_ZN86_$LT$alloc..vec..ExtendElement$LT$T$GT$$u20$as$u20$alloc..vec..ExtendWith$LT$T$GT$$GT$4last17ha28606eb736bcb7bE"(i32 %_33)
          to label %bb9 unwind label %cleanup9, !dbg !2316

bb9:                                              ; preds = %bb8
  store i32 %36, i32* %src2, align 4, !dbg !2316
  %37 = bitcast i32* %dst13 to i8*, !dbg !2247
  %38 = bitcast i32* %src2 to i8*, !dbg !2247
  call void @llvm.memcpy.p0i8.p0i8.i64(i8* align 4 %37, i8* align 4 %38, i64 4, i1 false), !dbg !2247
  store { i64*, i64 }* %local_len, { i64*, i64 }** %self.dbg.spill15, align 8, !dbg !2317
  call void @llvm.dbg.declare(metadata { i64*, i64 }** %self.dbg.spill15, metadata !2318, metadata !DIExpression()), !dbg !2323
  %39 = getelementptr inbounds { i64*, i64 }, { i64*, i64 }* %local_len, i32 0, i32 1, !dbg !2323
  %40 = getelementptr inbounds { i64*, i64 }, { i64*, i64 }* %local_len, i32 0, i32 1, !dbg !2323
  %41 = load i64, i64* %40, align 8, !dbg !2323
  %42 = add i64 %41, 1, !dbg !2323
  store i64 %42, i64* %39, align 8, !dbg !2323
  br label %bb10, !dbg !2324

abort:                                            ; preds = %bb13
  %43 = landingpad { i8*, i32 }
          cleanup, !dbg !2325
; call core::panicking::panic_no_unwind
  call void @_ZN4core9panicking15panic_no_unwind17h62f8113f44cbfcbfE() #17, !dbg !2325
  unreachable, !dbg !2325

bb11:                                             ; preds = %bb10
  %44 = load i8, i8* %_35, align 1, !dbg !2250, !range !582, !noundef !23
  %45 = trunc i8 %44 to i1, !dbg !2250
  br i1 %45, label %bb15, label %bb12, !dbg !2250

bb14:                                             ; preds = %bb16, %bb17
  %46 = bitcast { i8*, i32 }* %3 to i8**, !dbg !2325
  %47 = load i8*, i8** %46, align 8, !dbg !2325
  %48 = getelementptr inbounds { i8*, i32 }, { i8*, i32 }* %3, i32 0, i32 1, !dbg !2325
  %49 = load i32, i32* %48, align 8, !dbg !2325
  %50 = insertvalue { i8*, i32 } undef, i8* %47, 0, !dbg !2325
  %51 = insertvalue { i8*, i32 } %50, i32 %49, 1, !dbg !2325
  resume { i8*, i32 } %51, !dbg !2325

bb16:                                             ; preds = %bb17
  br label %bb14, !dbg !2250

bb12:                                             ; preds = %bb15, %bb11
  ret void, !dbg !2326

bb15:                                             ; preds = %bb11
  br label %bb12, !dbg !2250
}

; alloc::vec::Vec<T,A>::reserve
; Function Attrs: nonlazybind uwtable
define internal void @"_ZN5alloc3vec16Vec$LT$T$C$A$GT$7reserve17h52ed96e7b828c642E"(%"alloc::vec::Vec<i32>"* align 8 %self, i64 %additional) unnamed_addr #2 !dbg !2327 {
start:
  %additional.dbg.spill = alloca i64, align 8
  %self.dbg.spill = alloca %"alloc::vec::Vec<i32>"*, align 8
  store %"alloc::vec::Vec<i32>"* %self, %"alloc::vec::Vec<i32>"** %self.dbg.spill, align 8
  call void @llvm.dbg.declare(metadata %"alloc::vec::Vec<i32>"** %self.dbg.spill, metadata !2331, metadata !DIExpression()), !dbg !2333
  store i64 %additional, i64* %additional.dbg.spill, align 8
  call void @llvm.dbg.declare(metadata i64* %additional.dbg.spill, metadata !2332, metadata !DIExpression()), !dbg !2334
  %_4 = bitcast %"alloc::vec::Vec<i32>"* %self to { i32*, i64 }*, !dbg !2335
  %0 = getelementptr inbounds %"alloc::vec::Vec<i32>", %"alloc::vec::Vec<i32>"* %self, i32 0, i32 1, !dbg !2336
  %_5 = load i64, i64* %0, align 8, !dbg !2336
; call alloc::raw_vec::RawVec<T,A>::reserve
  call void @"_ZN5alloc7raw_vec19RawVec$LT$T$C$A$GT$7reserve17h25e84a25c1d24822E"({ i32*, i64 }* align 8 %_4, i64 %_5, i64 %additional), !dbg !2335
  br label %bb1, !dbg !2335

bb1:                                              ; preds = %start
  ret void, !dbg !2337
}

; alloc::vec::from_elem
; Function Attrs: nonlazybind uwtable
define internal void @_ZN5alloc3vec9from_elem17hce8d745a37188a40E(%"alloc::vec::Vec<i32>"* sret(%"alloc::vec::Vec<i32>") %0, i32 %elem, i64 %n) unnamed_addr #2 !dbg !2338 {
start:
  %n.dbg.spill = alloca i64, align 8
  %elem.dbg.spill = alloca i32, align 4
  store i32 %elem, i32* %elem.dbg.spill, align 4
  call void @llvm.dbg.declare(metadata i32* %elem.dbg.spill, metadata !2342, metadata !DIExpression()), !dbg !2344
  store i64 %n, i64* %n.dbg.spill, align 8
  call void @llvm.dbg.declare(metadata i64* %n.dbg.spill, metadata !2343, metadata !DIExpression()), !dbg !2345
; call <T as alloc::vec::spec_from_elem::SpecFromElem>::from_elem
  call void @"_ZN62_$LT$T$u20$as$u20$alloc..vec..spec_from_elem..SpecFromElem$GT$9from_elem17h466e1c1691e18845E"(%"alloc::vec::Vec<i32>"* sret(%"alloc::vec::Vec<i32>") %0, i32 %elem, i64 %n), !dbg !2346
  br label %bb1, !dbg !2346

bb1:                                              ; preds = %start
  ret void, !dbg !2347
}

; alloc::alloc::Global::alloc_impl
; Function Attrs: inlinehint nonlazybind uwtable
define internal { i8*, i64 } @_ZN5alloc5alloc6Global10alloc_impl17heed9f1286d8c0c5fE(%"alloc::alloc::Global"* align 1 %self, i64 %0, i64 %1, i1 zeroext %zeroed) unnamed_addr #0 !dbg !2348 {
start:
  %ptr.dbg.spill38 = alloca { [0 x i8]*, i64 }, align 8
  %data_address.dbg.spill35 = alloca {}*, align 8
  %self.dbg.spill33 = alloca i8*, align 8
  %data.dbg.spill32 = alloca i8*, align 8
  %self.dbg.spill31 = alloca i8*, align 8
  %ptr.dbg.spill29 = alloca i8*, align 8
  %2 = alloca i8*, align 8
  %addr.dbg.spill = alloca i64, align 8
  %n.dbg.spill28 = alloca i64, align 8
  %self.dbg.spill27 = alloca { i64, i64 }*, align 8
  %self.dbg.spill26 = alloca { i64, i64 }*, align 8
  %ptr.dbg.spill25 = alloca { [0 x i8]*, i64 }, align 8
  %metadata.dbg.spill = alloca i64, align 8
  %data_address.dbg.spill = alloca {}*, align 8
  %self.dbg.spill24 = alloca i8*, align 8
  %len.dbg.spill23 = alloca i64, align 8
  %data.dbg.spill22 = alloca i8*, align 8
  %self.dbg.spill21 = alloca i8*, align 8
  %len.dbg.spill = alloca i64, align 8
  %data.dbg.spill = alloca i8*, align 8
  %ptr.dbg.spill = alloca i8*, align 8
  %val.dbg.spill = alloca i8*, align 8
  %v.dbg.spill20 = alloca i8*, align 8
  %v.dbg.spill = alloca i8*, align 8
  %n.dbg.spill18 = alloca i64, align 8
  %self.dbg.spill17 = alloca { i64, i64 }*, align 8
  %self.dbg.spill16 = alloca { i64, i64 }*, align 8
  %n.dbg.spill = alloca i64, align 8
  %self.dbg.spill15 = alloca { i64, i64 }*, align 8
  %self.dbg.spill14 = alloca { i64, i64 }*, align 8
  %size.dbg.spill = alloca i64, align 8
  %self.dbg.spill13 = alloca { i64, i64 }*, align 8
  %e.dbg.spill12 = alloca %"core::alloc::AllocError", align 1
  %e.dbg.spill = alloca %"core::alloc::AllocError", align 1
  %residual.dbg.spill5 = alloca %"core::result::Result<core::convert::Infallible, core::alloc::AllocError>::Err", align 1
  %residual.dbg.spill = alloca %"core::result::Result<core::convert::Infallible, core::alloc::AllocError>::Err", align 1
  %err.dbg.spill = alloca %"core::alloc::AllocError", align 1
  %zeroed.dbg.spill = alloca i8, align 1
  %self.dbg.spill = alloca %"alloc::alloc::Global"*, align 8
  %_94 = alloca { i8*, i64 }, align 8
  %_93 = alloca %"core::ptr::metadata::PtrRepr<[u8]>", align 8
  %self11 = alloca i64, align 8
  %self10 = alloca i64, align 8
  %self9 = alloca i64, align 8
  %self8 = alloca i64, align 8
  %_51 = alloca { i8*, i64 }, align 8
  %_50 = alloca %"core::ptr::metadata::PtrRepr<[u8]>", align 8
  %self7 = alloca i64, align 8
  %self6 = alloca i64, align 8
  %_24 = alloca { i8*, i64 }, align 8
  %self4 = alloca i8*, align 8
  %self3 = alloca i8*, align 8
  %_15 = alloca i8*, align 8
  %layout2 = alloca { i64, i64 }, align 8
  %layout1 = alloca { i64, i64 }, align 8
  %raw_ptr = alloca i8*, align 8
  %data = alloca i8*, align 8
  %_6 = alloca { i8*, i64 }, align 8
  %3 = alloca { i8*, i64 }, align 8
  %layout = alloca { i64, i64 }, align 8
  %4 = getelementptr inbounds { i64, i64 }, { i64, i64 }* %layout, i32 0, i32 0
  store i64 %0, i64* %4, align 8
  %5 = getelementptr inbounds { i64, i64 }, { i64, i64 }* %layout, i32 0, i32 1
  store i64 %1, i64* %5, align 8
  store %"alloc::alloc::Global"* %self, %"alloc::alloc::Global"** %self.dbg.spill, align 8
  call void @llvm.dbg.declare(metadata %"alloc::alloc::Global"** %self.dbg.spill, metadata !2354, metadata !DIExpression()), !dbg !2380
  call void @llvm.dbg.declare(metadata { i64, i64 }* %layout, metadata !2355, metadata !DIExpression()), !dbg !2381
  %6 = zext i1 %zeroed to i8
  store i8 %6, i8* %zeroed.dbg.spill, align 1
  call void @llvm.dbg.declare(metadata i8* %zeroed.dbg.spill, metadata !2356, metadata !DIExpression()), !dbg !2382
  call void @llvm.dbg.declare(metadata i8** %data, metadata !2383, metadata !DIExpression()), !dbg !2390
  call void @llvm.dbg.declare(metadata i8** %raw_ptr, metadata !2359, metadata !DIExpression()), !dbg !2392
  call void @llvm.dbg.declare(metadata { i64, i64 }* %layout1, metadata !2393, metadata !DIExpression()), !dbg !2398
  call void @llvm.dbg.declare(metadata { i64, i64 }* %layout2, metadata !2400, metadata !DIExpression()), !dbg !2403
  call void @llvm.dbg.declare(metadata i8** %self3, metadata !2405, metadata !DIExpression()), !dbg !2447
  call void @llvm.dbg.declare(metadata i8** %self4, metadata !2449, metadata !DIExpression()), !dbg !2459
  call void @llvm.dbg.declare(metadata %"core::alloc::AllocError"* %err.dbg.spill, metadata !2455, metadata !DIExpression()), !dbg !2459
  call void @llvm.dbg.declare(metadata %"core::result::Result<core::convert::Infallible, core::alloc::AllocError>::Err"* %residual.dbg.spill, metadata !2363, metadata !DIExpression()), !dbg !2460
  call void @llvm.dbg.declare(metadata %"core::result::Result<core::convert::Infallible, core::alloc::AllocError>::Err"* %residual.dbg.spill5, metadata !2461, metadata !DIExpression()), !dbg !2472
  call void @llvm.dbg.declare(metadata i64* %self6, metadata !2474, metadata !DIExpression()), !dbg !2478
  call void @llvm.dbg.declare(metadata i64* %self7, metadata !2494, metadata !DIExpression()), !dbg !2498
  call void @llvm.dbg.declare(metadata i64* %self8, metadata !2499, metadata !DIExpression()), !dbg !2503
  call void @llvm.dbg.declare(metadata i64* %self9, metadata !2510, metadata !DIExpression()), !dbg !2514
  call void @llvm.dbg.declare(metadata i64* %self10, metadata !2515, metadata !DIExpression()), !dbg !2519
  call void @llvm.dbg.declare(metadata i64* %self11, metadata !2526, metadata !DIExpression()), !dbg !2530
  call void @llvm.dbg.declare(metadata %"core::alloc::AllocError"* %e.dbg.spill, metadata !2444, metadata !DIExpression()), !dbg !2531
  call void @llvm.dbg.declare(metadata %"core::alloc::AllocError"* %e.dbg.spill12, metadata !2467, metadata !DIExpression()), !dbg !2532
  store { i64, i64 }* %layout, { i64, i64 }** %self.dbg.spill13, align 8, !dbg !2533
  call void @llvm.dbg.declare(metadata { i64, i64 }** %self.dbg.spill13, metadata !2534, metadata !DIExpression()), !dbg !2538
  %7 = bitcast { i64, i64 }* %layout to i64*, !dbg !2538
  %_4 = load i64, i64* %7, align 8, !dbg !2538
  %8 = icmp eq i64 %_4, 0, !dbg !2539
  br i1 %8, label %bb2, label %bb1, !dbg !2539

bb2:                                              ; preds = %start
  store { i64, i64 }* %layout, { i64, i64 }** %self.dbg.spill26, align 8, !dbg !2493
  call void @llvm.dbg.declare(metadata { i64, i64 }** %self.dbg.spill26, metadata !2491, metadata !DIExpression()), !dbg !2540
  store { i64, i64 }* %layout, { i64, i64 }** %self.dbg.spill27, align 8, !dbg !2540
  call void @llvm.dbg.declare(metadata { i64, i64 }** %self.dbg.spill27, metadata !2484, metadata !DIExpression()), !dbg !2541
  %9 = getelementptr inbounds { i64, i64 }, { i64, i64 }* %layout, i32 0, i32 1, !dbg !2541
  %10 = load i64, i64* %9, align 8, !dbg !2541, !range !1290, !noundef !23
  store i64 %10, i64* %self7, align 8, !dbg !2541
  %_33 = load i64, i64* %self7, align 8, !dbg !2498, !range !1290, !noundef !23
  store i64 %_33, i64* %n.dbg.spill28, align 8, !dbg !2498
  call void @llvm.dbg.declare(metadata i64* %n.dbg.spill28, metadata !2542, metadata !DIExpression()), !dbg !2549
  store i64 %_33, i64* %self6, align 8, !dbg !2549
  %addr = load i64, i64* %self6, align 8, !dbg !2478
  store i64 %addr, i64* %addr.dbg.spill, align 8, !dbg !2478
  call void @llvm.dbg.declare(metadata i64* %addr.dbg.spill, metadata !2551, metadata !DIExpression()), !dbg !2557
  %11 = bitcast i8** %2 to i64*, !dbg !2557
  store i64 %addr, i64* %11, align 8, !dbg !2557
  %ptr = load i8*, i8** %2, align 8, !dbg !2557
  store i8* %ptr, i8** %ptr.dbg.spill29, align 8, !dbg !2557
  call void @llvm.dbg.declare(metadata i8** %ptr.dbg.spill29, metadata !2559, metadata !DIExpression()), !dbg !2563
  br label %bb13, !dbg !2557

bb1:                                              ; preds = %start
  store i64 %_4, i64* %size.dbg.spill, align 8, !dbg !2565
  call void @llvm.dbg.declare(metadata i64* %size.dbg.spill, metadata !2357, metadata !DIExpression()), !dbg !2566
  br i1 %zeroed, label %bb3, label %bb4, !dbg !2567

bb4:                                              ; preds = %bb1
  %12 = getelementptr inbounds { i64, i64 }, { i64, i64 }* %layout, i32 0, i32 0, !dbg !2568
  %13 = load i64, i64* %12, align 8, !dbg !2568
  %14 = getelementptr inbounds { i64, i64 }, { i64, i64 }* %layout, i32 0, i32 1, !dbg !2568
  %15 = load i64, i64* %14, align 8, !dbg !2568, !range !1290, !noundef !23
  %16 = getelementptr inbounds { i64, i64 }, { i64, i64 }* %layout2, i32 0, i32 0, !dbg !2568
  store i64 %13, i64* %16, align 8, !dbg !2568
  %17 = getelementptr inbounds { i64, i64 }, { i64, i64 }* %layout2, i32 0, i32 1, !dbg !2568
  store i64 %15, i64* %17, align 8, !dbg !2568
  store { i64, i64 }* %layout2, { i64, i64 }** %self.dbg.spill16, align 8, !dbg !2403
  call void @llvm.dbg.declare(metadata { i64, i64 }** %self.dbg.spill16, metadata !2569, metadata !DIExpression()), !dbg !2573
  %18 = bitcast { i64, i64 }* %layout2 to i64*, !dbg !2573
  %_67 = load i64, i64* %18, align 8, !dbg !2573
  store { i64, i64 }* %layout2, { i64, i64 }** %self.dbg.spill17, align 8, !dbg !2403
  call void @llvm.dbg.declare(metadata { i64, i64 }** %self.dbg.spill17, metadata !2523, metadata !DIExpression()), !dbg !2575
  %19 = getelementptr inbounds { i64, i64 }, { i64, i64 }* %layout2, i32 0, i32 1, !dbg !2575
  %20 = load i64, i64* %19, align 8, !dbg !2575, !range !1290, !noundef !23
  store i64 %20, i64* %self11, align 8, !dbg !2575
  %_74 = load i64, i64* %self11, align 8, !dbg !2530, !range !1290, !noundef !23
  store i64 %_74, i64* %n.dbg.spill18, align 8, !dbg !2530
  call void @llvm.dbg.declare(metadata i64* %n.dbg.spill18, metadata !2576, metadata !DIExpression()), !dbg !2583
  store i64 %_74, i64* %self10, align 8, !dbg !2583
  %_69 = load i64, i64* %self10, align 8, !dbg !2519
  %21 = call i8* @__rust_alloc(i64 %_67, i64 %_69) #18, !dbg !2403
  store i8* %21, i8** %raw_ptr, align 8, !dbg !2403
  br label %bb15, !dbg !2403

bb3:                                              ; preds = %bb1
  %22 = getelementptr inbounds { i64, i64 }, { i64, i64 }* %layout, i32 0, i32 0, !dbg !2585
  %23 = load i64, i64* %22, align 8, !dbg !2585
  %24 = getelementptr inbounds { i64, i64 }, { i64, i64 }* %layout, i32 0, i32 1, !dbg !2585
  %25 = load i64, i64* %24, align 8, !dbg !2585, !range !1290, !noundef !23
  %26 = getelementptr inbounds { i64, i64 }, { i64, i64 }* %layout1, i32 0, i32 0, !dbg !2585
  store i64 %23, i64* %26, align 8, !dbg !2585
  %27 = getelementptr inbounds { i64, i64 }, { i64, i64 }* %layout1, i32 0, i32 1, !dbg !2585
  store i64 %25, i64* %27, align 8, !dbg !2585
  store { i64, i64 }* %layout1, { i64, i64 }** %self.dbg.spill14, align 8, !dbg !2398
  call void @llvm.dbg.declare(metadata { i64, i64 }** %self.dbg.spill14, metadata !2586, metadata !DIExpression()), !dbg !2590
  %28 = bitcast { i64, i64 }* %layout1 to i64*, !dbg !2590
  %_57 = load i64, i64* %28, align 8, !dbg !2590
  store { i64, i64 }* %layout1, { i64, i64 }** %self.dbg.spill15, align 8, !dbg !2398
  call void @llvm.dbg.declare(metadata { i64, i64 }** %self.dbg.spill15, metadata !2507, metadata !DIExpression()), !dbg !2592
  %29 = getelementptr inbounds { i64, i64 }, { i64, i64 }* %layout1, i32 0, i32 1, !dbg !2592
  %30 = load i64, i64* %29, align 8, !dbg !2592, !range !1290, !noundef !23
  store i64 %30, i64* %self9, align 8, !dbg !2592
  %_64 = load i64, i64* %self9, align 8, !dbg !2514, !range !1290, !noundef !23
  store i64 %_64, i64* %n.dbg.spill, align 8, !dbg !2514
  call void @llvm.dbg.declare(metadata i64* %n.dbg.spill, metadata !2593, metadata !DIExpression()), !dbg !2600
  store i64 %_64, i64* %self8, align 8, !dbg !2600
  %_59 = load i64, i64* %self8, align 8, !dbg !2503
  %31 = call i8* @__rust_alloc_zeroed(i64 %_57, i64 %_59) #18, !dbg !2398
  store i8* %31, i8** %raw_ptr, align 8, !dbg !2398
  br label %bb14, !dbg !2398

bb14:                                             ; preds = %bb3
  br label %bb5, !dbg !2602

bb5:                                              ; preds = %bb15, %bb14
  %_18 = load i8*, i8** %raw_ptr, align 8, !dbg !2603
; call core::ptr::non_null::NonNull<T>::new
  %32 = call i8* @"_ZN4core3ptr8non_null16NonNull$LT$T$GT$3new17he9f80aa4e18ed60cE"(i8* %_18), !dbg !2448
  store i8* %32, i8** %self4, align 8, !dbg !2448
  br label %bb6, !dbg !2448

bb15:                                             ; preds = %bb4
  br label %bb5, !dbg !2602

bb6:                                              ; preds = %bb5
  %33 = bitcast i8** %self4 to {}**, !dbg !2459
  %34 = load {}*, {}** %33, align 8, !dbg !2459
  %35 = icmp eq {}* %34, null, !dbg !2459
  %_77 = select i1 %35, i64 0, i64 1, !dbg !2459
  switch i64 %_77, label %bb17 [
    i64 0, label %bb16
    i64 1, label %bb18
  ], !dbg !2459

bb17:                                             ; preds = %bb6
  unreachable, !dbg !2459

bb16:                                             ; preds = %bb6
  %36 = bitcast i8** %self3 to {}**, !dbg !2459
  store {}* null, {}** %36, align 8, !dbg !2459
  br label %bb19, !dbg !2459

bb18:                                             ; preds = %bb6
  %v = load i8*, i8** %self4, align 8, !dbg !2459, !nonnull !23, !noundef !23
  store i8* %v, i8** %v.dbg.spill, align 8, !dbg !2459
  call void @llvm.dbg.declare(metadata i8** %v.dbg.spill, metadata !2456, metadata !DIExpression()), !dbg !2604
  store i8* %v, i8** %self3, align 8, !dbg !2604
  br label %bb19, !dbg !2459

bb19:                                             ; preds = %bb16, %bb18
  %37 = bitcast i8** %self3 to {}**, !dbg !2447
  %38 = load {}*, {}** %37, align 8, !dbg !2447
  %39 = icmp eq {}* %38, null, !dbg !2447
  %_80 = select i1 %39, i64 1, i64 0, !dbg !2447
  switch i64 %_80, label %bb21 [
    i64 0, label %bb22
    i64 1, label %bb20
  ], !dbg !2447

bb21:                                             ; preds = %bb19
  unreachable, !dbg !2447

bb22:                                             ; preds = %bb19
  %v19 = load i8*, i8** %self3, align 8, !dbg !2447, !nonnull !23, !noundef !23
  store i8* %v19, i8** %v.dbg.spill20, align 8, !dbg !2447
  call void @llvm.dbg.declare(metadata i8** %v.dbg.spill20, metadata !2441, metadata !DIExpression()), !dbg !2605
  store i8* %v19, i8** %_15, align 8, !dbg !2605
  br label %bb7, !dbg !2447

bb20:                                             ; preds = %bb19
  %40 = bitcast i8** %_15 to {}**, !dbg !2531
  store {}* null, {}** %40, align 8, !dbg !2531
  br label %bb7, !dbg !2447

bb7:                                              ; preds = %bb22, %bb20
  %41 = bitcast i8** %_15 to {}**, !dbg !2448
  %42 = load {}*, {}** %41, align 8, !dbg !2448
  %43 = icmp eq {}* %42, null, !dbg !2448
  %_20 = select i1 %43, i64 1, i64 0, !dbg !2448
  switch i64 %_20, label %bb9 [
    i64 0, label %bb8
    i64 1, label %bb10
  ], !dbg !2448

bb9:                                              ; preds = %bb7
  unreachable, !dbg !2448

bb8:                                              ; preds = %bb7
  %val = load i8*, i8** %_15, align 8, !dbg !2448, !nonnull !23, !noundef !23
  store i8* %val, i8** %val.dbg.spill, align 8, !dbg !2448
  call void @llvm.dbg.declare(metadata i8** %val.dbg.spill, metadata !2378, metadata !DIExpression()), !dbg !2606
  store i8* %val, i8** %ptr.dbg.spill, align 8, !dbg !2606
  call void @llvm.dbg.declare(metadata i8** %ptr.dbg.spill, metadata !2361, metadata !DIExpression()), !dbg !2607
  store i8* %val, i8** %data.dbg.spill, align 8, !dbg !2608
  call void @llvm.dbg.declare(metadata i8** %data.dbg.spill, metadata !2609, metadata !DIExpression()), !dbg !2614
  store i64 %_4, i64* %len.dbg.spill, align 8, !dbg !2616
  call void @llvm.dbg.declare(metadata i64* %len.dbg.spill, metadata !2613, metadata !DIExpression()), !dbg !2614
  store i8* %val, i8** %self.dbg.spill21, align 8, !dbg !2614
  call void @llvm.dbg.declare(metadata i8** %self.dbg.spill21, metadata !2617, metadata !DIExpression()), !dbg !2621
  store i8* %val, i8** %data.dbg.spill22, align 8, !dbg !2621
  call void @llvm.dbg.declare(metadata i8** %data.dbg.spill22, metadata !2623, metadata !DIExpression()), !dbg !2634
  store i64 %_4, i64* %len.dbg.spill23, align 8, !dbg !2614
  call void @llvm.dbg.declare(metadata i64* %len.dbg.spill23, metadata !2633, metadata !DIExpression()), !dbg !2634
  store i8* %val, i8** %self.dbg.spill24, align 8, !dbg !2634
  call void @llvm.dbg.declare(metadata i8** %self.dbg.spill24, metadata !2636, metadata !DIExpression()), !dbg !2644
  %data_address = bitcast i8* %val to {}*, !dbg !2644
  store {}* %data_address, {}** %data_address.dbg.spill, align 8, !dbg !2644
  call void @llvm.dbg.declare(metadata {}** %data_address.dbg.spill, metadata !2646, metadata !DIExpression()), !dbg !2653
  store i64 %_4, i64* %metadata.dbg.spill, align 8, !dbg !2634
  call void @llvm.dbg.declare(metadata i64* %metadata.dbg.spill, metadata !2652, metadata !DIExpression()), !dbg !2653
  %44 = bitcast { i8*, i64 }* %_94 to {}**, !dbg !2653
  store {}* %data_address, {}** %44, align 8, !dbg !2653
  %45 = getelementptr inbounds { i8*, i64 }, { i8*, i64 }* %_94, i32 0, i32 1, !dbg !2653
  store i64 %_4, i64* %45, align 8, !dbg !2653
  %46 = bitcast %"core::ptr::metadata::PtrRepr<[u8]>"* %_93 to { i8*, i64 }*, !dbg !2653
  %47 = getelementptr inbounds { i8*, i64 }, { i8*, i64 }* %_94, i32 0, i32 0, !dbg !2653
  %48 = load i8*, i8** %47, align 8, !dbg !2653
  %49 = getelementptr inbounds { i8*, i64 }, { i8*, i64 }* %_94, i32 0, i32 1, !dbg !2653
  %50 = load i64, i64* %49, align 8, !dbg !2653
  %51 = getelementptr inbounds { i8*, i64 }, { i8*, i64 }* %46, i32 0, i32 0, !dbg !2653
  store i8* %48, i8** %51, align 8, !dbg !2653
  %52 = getelementptr inbounds { i8*, i64 }, { i8*, i64 }* %46, i32 0, i32 1, !dbg !2653
  store i64 %50, i64* %52, align 8, !dbg !2653
  %53 = bitcast %"core::ptr::metadata::PtrRepr<[u8]>"* %_93 to { [0 x i8]*, i64 }*, !dbg !2653
  %54 = getelementptr inbounds { [0 x i8]*, i64 }, { [0 x i8]*, i64 }* %53, i32 0, i32 0, !dbg !2653
  %ptr.0 = load [0 x i8]*, [0 x i8]** %54, align 8, !dbg !2653
  %55 = getelementptr inbounds { [0 x i8]*, i64 }, { [0 x i8]*, i64 }* %53, i32 0, i32 1, !dbg !2653
  %ptr.1 = load i64, i64* %55, align 8, !dbg !2653
  %56 = getelementptr inbounds { [0 x i8]*, i64 }, { [0 x i8]*, i64 }* %ptr.dbg.spill25, i32 0, i32 0, !dbg !2653
  store [0 x i8]* %ptr.0, [0 x i8]** %56, align 8, !dbg !2653
  %57 = getelementptr inbounds { [0 x i8]*, i64 }, { [0 x i8]*, i64 }* %ptr.dbg.spill25, i32 0, i32 1, !dbg !2653
  store i64 %ptr.1, i64* %57, align 8, !dbg !2653
  call void @llvm.dbg.declare(metadata { [0 x i8]*, i64 }* %ptr.dbg.spill25, metadata !2655, metadata !DIExpression()), !dbg !2661
  %58 = bitcast { i8*, i64 }* %_24 to { [0 x i8]*, i64 }*, !dbg !2661
  %59 = getelementptr inbounds { [0 x i8]*, i64 }, { [0 x i8]*, i64 }* %58, i32 0, i32 0, !dbg !2661
  store [0 x i8]* %ptr.0, [0 x i8]** %59, align 8, !dbg !2661
  %60 = getelementptr inbounds { [0 x i8]*, i64 }, { [0 x i8]*, i64 }* %58, i32 0, i32 1, !dbg !2661
  store i64 %ptr.1, i64* %60, align 8, !dbg !2661
  %61 = getelementptr inbounds { i8*, i64 }, { i8*, i64 }* %_24, i32 0, i32 0, !dbg !2663
  %62 = load i8*, i8** %61, align 8, !dbg !2663, !nonnull !23, !noundef !23
  %63 = getelementptr inbounds { i8*, i64 }, { i8*, i64 }* %_24, i32 0, i32 1, !dbg !2663
  %64 = load i64, i64* %63, align 8, !dbg !2663
  %65 = getelementptr inbounds { i8*, i64 }, { i8*, i64 }* %3, i32 0, i32 0, !dbg !2663
  store i8* %62, i8** %65, align 8, !dbg !2663
  %66 = getelementptr inbounds { i8*, i64 }, { i8*, i64 }* %3, i32 0, i32 1, !dbg !2663
  store i64 %64, i64* %66, align 8, !dbg !2663
  br label %bb11, !dbg !2664

bb10:                                             ; preds = %bb7
; call <T as core::convert::From<T>>::from
  call void @"_ZN50_$LT$T$u20$as$u20$core..convert..From$LT$T$GT$$GT$4from17h45d528083251d0c9E"(), !dbg !2532
  br label %bb23, !dbg !2532

bb23:                                             ; preds = %bb10
  %67 = bitcast { i8*, i64 }* %3 to {}**, !dbg !2532
  store {}* null, {}** %67, align 8, !dbg !2532
  br label %bb12, !dbg !2665

bb12:                                             ; preds = %bb11, %bb23
  %68 = getelementptr inbounds { i8*, i64 }, { i8*, i64 }* %3, i32 0, i32 0, !dbg !2665
  %69 = load i8*, i8** %68, align 8, !dbg !2665
  %70 = getelementptr inbounds { i8*, i64 }, { i8*, i64 }* %3, i32 0, i32 1, !dbg !2665
  %71 = load i64, i64* %70, align 8, !dbg !2665
  %72 = insertvalue { i8*, i64 } undef, i8* %69, 0, !dbg !2665
  %73 = insertvalue { i8*, i64 } %72, i64 %71, 1, !dbg !2665
  ret { i8*, i64 } %73, !dbg !2665

bb11:                                             ; preds = %bb13, %bb8
  br label %bb12, !dbg !2665

bb13:                                             ; preds = %bb2
  store i8* %ptr, i8** %data, align 8, !dbg !2563
  %self30 = load i8*, i8** %data, align 8, !dbg !2390, !nonnull !23, !noundef !23
  store i8* %self30, i8** %self.dbg.spill31, align 8, !dbg !2390
  call void @llvm.dbg.declare(metadata i8** %self.dbg.spill31, metadata !2666, metadata !DIExpression()), !dbg !2670
  store i8* %self30, i8** %data.dbg.spill32, align 8, !dbg !2670
  call void @llvm.dbg.declare(metadata i8** %data.dbg.spill32, metadata !2672, metadata !DIExpression()), !dbg !2677
  store i8* %self30, i8** %self.dbg.spill33, align 8, !dbg !2677
  call void @llvm.dbg.declare(metadata i8** %self.dbg.spill33, metadata !2679, metadata !DIExpression()), !dbg !2683
  %data_address34 = bitcast i8* %self30 to {}*, !dbg !2683
  store {}* %data_address34, {}** %data_address.dbg.spill35, align 8, !dbg !2683
  call void @llvm.dbg.declare(metadata {}** %data_address.dbg.spill35, metadata !2685, metadata !DIExpression()), !dbg !2690
  %74 = bitcast { i8*, i64 }* %_51 to {}**, !dbg !2690
  store {}* %data_address34, {}** %74, align 8, !dbg !2690
  %75 = getelementptr inbounds { i8*, i64 }, { i8*, i64 }* %_51, i32 0, i32 1, !dbg !2690
  store i64 0, i64* %75, align 8, !dbg !2690
  %76 = bitcast %"core::ptr::metadata::PtrRepr<[u8]>"* %_50 to { i8*, i64 }*, !dbg !2690
  %77 = getelementptr inbounds { i8*, i64 }, { i8*, i64 }* %_51, i32 0, i32 0, !dbg !2690
  %78 = load i8*, i8** %77, align 8, !dbg !2690
  %79 = getelementptr inbounds { i8*, i64 }, { i8*, i64 }* %_51, i32 0, i32 1, !dbg !2690
  %80 = load i64, i64* %79, align 8, !dbg !2690
  %81 = getelementptr inbounds { i8*, i64 }, { i8*, i64 }* %76, i32 0, i32 0, !dbg !2690
  store i8* %78, i8** %81, align 8, !dbg !2690
  %82 = getelementptr inbounds { i8*, i64 }, { i8*, i64 }* %76, i32 0, i32 1, !dbg !2690
  store i64 %80, i64* %82, align 8, !dbg !2690
  %83 = bitcast %"core::ptr::metadata::PtrRepr<[u8]>"* %_50 to { [0 x i8]*, i64 }*, !dbg !2690
  %84 = getelementptr inbounds { [0 x i8]*, i64 }, { [0 x i8]*, i64 }* %83, i32 0, i32 0, !dbg !2690
  %ptr.036 = load [0 x i8]*, [0 x i8]** %84, align 8, !dbg !2690
  %85 = getelementptr inbounds { [0 x i8]*, i64 }, { [0 x i8]*, i64 }* %83, i32 0, i32 1, !dbg !2690
  %ptr.137 = load i64, i64* %85, align 8, !dbg !2690
  %86 = getelementptr inbounds { [0 x i8]*, i64 }, { [0 x i8]*, i64 }* %ptr.dbg.spill38, i32 0, i32 0, !dbg !2690
  store [0 x i8]* %ptr.036, [0 x i8]** %86, align 8, !dbg !2690
  %87 = getelementptr inbounds { [0 x i8]*, i64 }, { [0 x i8]*, i64 }* %ptr.dbg.spill38, i32 0, i32 1, !dbg !2690
  store i64 %ptr.137, i64* %87, align 8, !dbg !2690
  call void @llvm.dbg.declare(metadata { [0 x i8]*, i64 }* %ptr.dbg.spill38, metadata !2692, metadata !DIExpression()), !dbg !2696
  %88 = bitcast { i8*, i64 }* %_6 to { [0 x i8]*, i64 }*, !dbg !2696
  %89 = getelementptr inbounds { [0 x i8]*, i64 }, { [0 x i8]*, i64 }* %88, i32 0, i32 0, !dbg !2696
  store [0 x i8]* %ptr.036, [0 x i8]** %89, align 8, !dbg !2696
  %90 = getelementptr inbounds { [0 x i8]*, i64 }, { [0 x i8]*, i64 }* %88, i32 0, i32 1, !dbg !2696
  store i64 %ptr.137, i64* %90, align 8, !dbg !2696
  %91 = getelementptr inbounds { i8*, i64 }, { i8*, i64 }* %_6, i32 0, i32 0, !dbg !2698
  %92 = load i8*, i8** %91, align 8, !dbg !2698, !nonnull !23, !noundef !23
  %93 = getelementptr inbounds { i8*, i64 }, { i8*, i64 }* %_6, i32 0, i32 1, !dbg !2698
